s
q
4
__TEXT
__text
__TEXT
'
__picsymbolstub1__TEXT
6
6
__const_coal
__TEXT
=
p
=
__cstring
__TEXT
=
q
=
__const
__TEXT
>
>
__DATA
__data
__DATA
D
__dyld
__DATA
D
D
__la_symbol_ptr
__DATA
L
L
4
__const
__DATA
A
\
A
__nl_symbol_ptr
__DATA
B
|
B
|
h
8__LINKEDIT
P
0
P
#
xOz
ZfB
A
}
S
\
P
h
h
i
4
[
i
P
v
8
executable_path
/
libxpcom
.
dylib
8
executable_path
/
libnspr4
.
dylib
<
executable_path
/
libsmime3
.
dylib
8
executable_path
/
libssl3
.
dylib
8
executable_path
/
libnss3
.
dylib
<
executable_path
/
libnssutil3
.
dylib
8
executable_path
/
libplds4
.
dylib
8
executable_path
/
libplc4
.
dylib
4
/
usr
/
lib
/
libstdc
+
+
.
6
.
dylib
4
/
usr
/
lib
/
libgcc_s
.
1
.
dylib
4
X
/
usr
/
lib
/
libSystem
.
B
.
dylib
|
B
}
|
}
cx
=
1
}
|
x
=
1TN
c
/
M
C
|
|
xN
|
|
~
x
8
!
c
/
A
C
|
x
|
N
!
8
!
P
x
|
N
|
|
~
x
!
c
/
<
H
C
|
x
|
N
!
|
x
~
/
A
8
!
P
|
x
|
N
|
#
y
|
|
}
x
!
A
^
x
|
x
|
N
!
}
/
A
(
C
8
!
P
|
x
|
|
N
8
!
P
|
N
|
|
~
x
|
#
x
|
+
x
!
8
8K
/
8
8
~
8
/
A
C
|
x
|
N
!
8
!
|
N
|
|
~
x
!
|
8a
|
|
+
x8
8H
/
8
8
~
8
/
A
C
|
x
|
N
!
8
!
|
N
|
A
|
z
x
|
#
x
|
+
x
8
!
;
a
8
8
c
xK
H
&
|
~
x
a
8
/
A
(
C
D
x
x
x
|
x
|
N
!
|
~
x
c
xK
U8
!
p
x
A
|
N
|
|
+
x
!
c
K
a
/
8
8
!
P
|
N
|
|
3x
/
!
A
t
E
9d
t
I
d
I
T
E
D
|
C
.
x
|
x
|
N
!
8
H
0
<
8
c
H
+
8
9k
/
tK
8
!
P
|
N
|
|
|
x
|
#
x
|
#
x
!
H
#
|
~
yA
x
xH
)
8
!
P
x
|
N
|
B
|
~
x
!
#
<
_
8B
.
/
8
L8B
C
A
4
/
A
|
x
|
N
!
>
I
0
/
A
8
8
!
P
|
N
8c
H
'
|
B
|
+
x
}
H
|
|
#
x
<
|
x8
.
0K
4
C
|
#
x
|
+
x
|
3x
/
A
|
|
xN
<
c
TN
8
N
C
|
#
x
|
+
x
(
/
A
|
|
xN
8
N
C
|
#
x
|
+
x
/
A
|
|
xN
8
N
|
|
~
x
|
#
x
!
C
b
/
A
<
H
(
8c
H
"
!
/
}
<
c
H
^
H
(
=
8
H
d
8
8
!
P
|
N
|
|
#
x8
!
c
8c
K
/
}
8
<
c
8
!
P
|
N
C
8
"
b
B
d
D
N
8
8
N
C
8
4
N
C
/
A
B
0
/
A
8
/
A
0
/
A
8
8
N
8
N
|
B
}
H
|
8
<
J
8B
+
8B
C
N
8c
H
%
|
B
|
+
x
}
H
|
|
#
x
<
|
x8
+
K
<
c
N
<
8
c
N
|
|
}
x8
|
#
x
!
H
&
!
|
~
x
K
)
/
<
c
H
x
^
|
x
|
N
!
8
8
!
P
|
N
|
B
/
}
H
|
8
<
J
8B
*
49
"
L8B
C
#
8c
M
0
/
M
d
N
/
|
|
#
x
|
+
x
!
A
?
c
H
d8
H
%
58
|
~
xK
q
/
?
c
H
<
^
x
x
x
|
x
|
N
!
|
}
yA
xK
A
xH
8
!
P
x
|
N
|
B
|
#
x
|
|
x
8
!
<
8
88
%
XK
-
|
~
yA
L
a
8
x
C
|
x
|
N
!
|
~
yA
8
H
a
8
C
|
x
|
N
!
8
!
x
|
N
|
|
~
x8c
!
H
"
m
|
}
y
/
8
A
xK
I
xH
#
8
!
P
x
|
N
|
B
|
|
x
|
#
x
|
+
x
!
|
3x
/
A
;
a
<
;
:
8
:
>
;
/
A
C
x
x
~
x
x
|
x
|
N
!
c
x
~
x8
<
D
A
<
K
a
<
/
A
C
8
%
x
|
x
|
N
!
a
8
c
x
;
K
9
;
8
A
x8
!
8
|
N
|
|
~
x
|
#
x
!
C
b
/
A
<
H
#
8c
H
/
}
<
c
H
^
H
"
8
H
d
8
8
!
P
|
N
|
|
|
x
!
/
H
(
x
xK
a
xH
"
/
/
A
8
\
8
/
A
8
!
P
|
I
x
|
L
x
|
N
8
!
P
|
N
|
B
}
H
|
<
J
8B
&
8B
C
K
D
|
|
~
x8c
!
H
|
}
y
/
8
A
xK
xH
!
98
!
P
x
|
N
a
|
#
y
|
|
{
x
!
<
c
H
08
H
!
8
|
}
x
xK
8
8
!
a
|
N
|
B
|
{
x
|
#
x
;
!
/
D
/
A
|
x
|
N
!
/
|
}
x
a
8A
;
<
<
8
88
!
H
x8
D
H
A
D
<
K
8
/
A
[
/
A
;
;
;
A
/
A
4p
A
C
x
!
K
e
xK
E
|
}
yA
x
/
c
xK
|
}
xH
0
a
<
8
C
|
x
|
N
!
|
}
x
/
A
C
xK
[
;
;
8
A
H
C
xK
H
8
;
xK
8
!
x
|
N
A
|
;
y
|
|
+
x
|
3x
|
}
x
!
?
c
H
8
C
/
K
5
|
~
yA
/
A
|
|
9
>
X
\
\
t
\
d
;
88
x
8K
xK
|
~
yA
(
a
8
D
x
e
x
C
|
x
|
N
!
|
~
x
xK
H
?
c
TH
;
8B
K
X8
!
p
x
A
|
N
|
8
B
|
{
x
|
#
x
!
|
+
x
|
3x
A
8
|
;
x
/
A
;
:
8
:
;
<
>
/
A
p
x8
8
D
A
<
K
9
a
<
/
A
4
C
8
~
x
x
)
x
|
x
|
N
!
a
8
8
/
A
xK
/
H
<
xK
uH
D
C
x
~
x
x
&
x
x
|
x
|
N
!
/
a
8A
;
;
8
A
0
a
88
!
|
N
8c
K
8c
K
8c
K
8c
K
8c
K
h8c
K
8c
K
8c
K
H8c
K
P8c
K
l8c
K
|
8
!
8
8H
a
88
!
|
N
|
|
+
x
|
#
xB
}
H
|
<
8
!
K
x
|
B
8
!
8
<
_
<
8B
!
8
8B
C
8
C
8a
8H
8a
8K
8
!
|
N
K
8
N
8
N
8
N
8
N
|
b
x
c
8c
b
N
|
A
|
+
y
|
#
x
|
3x
!
(
8a
8
|
}
xH
e
C
x
xH
xH
UH
\
<
8
\
|
B
T
^
:
xH
|
}
y
<
c
H
0
x
x
c
xH
9
C
x
x
xH
xH
8
8
!
p
A
|
N
|
A
|
{
x
|
#
x
!
/
A
/
A
/
A
?
c
H
;
H
;
H
;
H
|
|
yA
x8
8
8
H
q
|
}
yA
<
H
/
D
xH
A
4
F
x
c
xK
|
~
xH
?
c
xH
H
?
c
xH
K
8
!
x
A
|
N
|
a
|
|
x
|
#
x
!
c
H
H
+
|
~
x
<
c
H
8
;
8
|
d
x
xH
A
x
x
x
f
xK
|
p
|
88
!
a
|
N
|
+
a
|
#
x
|
|
x
|
+
x
!
<
c
H
4
;
8
xH
-
A
x
x
x
f
xK
y
|
p
|
88
!
a
|
N
|
|
}
x
|
#
x
|
+
x
!
H
5
<
c
H
x
xK
|
p
|
88
!
P
|
N
|
B
!
C
8B
/
|
I
x
C
/
8
A
<
_
8B
8B
C
H
9
8
!
P
}
#
Kx
|
N
|
A
|
+
x
|
3x
!
;
<
xH
x8
88
H
M
;
{
H
x8
88
H
)
+
8
88
xH
xT
K
8
88
|
}
x
xH
/
=
;
xK
8
88
|
}
x
xH
/
=
;
A
L
x
;
K
8
88
|
}
x
xH
y
E
x
|
d
x
xH
/
?
c
WH
?
c
xH
8
!
p
x
A
|
N
|
|
#
x
|
3x
|
+
x
;
|
y
x
!
;
A
d8
8
8
E
xK
y
|
~
yA
P
8
;
a
d
x
#
x
;
A
P
<
e
x8
<
L
TK
A
|
~
yA
<
H
X
a
\
8
d
DH
|
|
y
&
A
y
H
/
A
|
d
x8
x8
8
X9
H
|
z
yA
\
8a
LH
|
x
yA
XH
]
|
{
yA
X8
H
d
x
E
x8
H
=
/
d
D
H
#
x
~
xK
|
~
xH
P
?
c
H
(
?
c
H
?
c
xH
C
xH
)
A
xH
H
?
c
c
xH
eK
8
!
0
x
|
N
|
!
|
z
x
|
+
x
|
3x
;
!
p
;
a
;
d
c
xH
c
x
L
P
TK
A8
<
8
a
P
c
xH
1
x8
a
T
x
C
x8
8
8K
|
}
yA
z
88
&
8
8
9
X
X
\
|
d
x
H
|
~
yA
LH
|
|
yA
8
L8
8
x
;
H
q8
y
xH
xH
/
?
c
c
xH
8
!
x
!
|
N
|
;
|
&
|
+
x8
|
3x
;
}
Cx
|
;
x
|
}
x
A
!
h
;
8
d
X
a
d
xK
|
~
yA
D
d
D
x
%
x
x8
x
a
t
|
K
]
|
~
yA
;
~
x
\
x
x8
\
K
A
|
~
yA
}
\
l
a
h
pH
H
/
|
}
xA
;
A
h
D
xH
a
.
|
|
xA
pH
-
|
y
x
?
c
H
l
x8
X
;
I
x
a
H
a
<
x
8
D8
t9
9
H
}
/
A
(
H
H
;
?
;
.
c
M
a
/
A
H
AA
#
xH
A
x8
H
%
8
!
x
a
|
}
q
}
p
N
|
|
#
x
|
&
|
+
x8
|
3x
;
;
|
;
x
}
Cx
A
!
0
}
4Kx
|
y
x
;
A
8
d
h
a
d
E
xK
|
~
yA
d
;
x
#
x8
\
A
|
a
x
\
x
K
|
~
yA
\
~
x
~
x
#
x8
a
K
a
|
~
yA
;
~
x
X
#
x
x8
XK
E
|
~
yA
t
y
X
p
a
l
tH
H
/
|
~
xA
;
A
l
D
xH
e
|
|
y
&
A
H
.
|
x
xA
H
8
I
x8A
h
x
a
H
a
<
D
8
A
x8
x9
9
H
|
z
y
?
c
H
x8
8
8
H
|
w
y
&
A
H
/
~
xH
%
A
|
~
x
#
xK
|
~
xH
h
~
xH
H
;
?
;
c
&
N
a
/
A
H
A
xH
A
0
x8
H
H
?
c
C
xH
x
K
8
!
0
x
a
|
}
p
N
|
|
#
x
;
|
+
x
|
3x
|
;
x
!
}
Cx
|
{
x8
8
8K
m
A
;
X
x
;
c
x
x8
<
A
<
K
M
A
{
<
D
HH
H
/
|
}
xA
8
H
q
|
~
yA
x
y
8
x8
X
%
x
x
L
A
T
P9
L9
H
8
|
}
x
xH
a
8H
/
(
P
T
c
x
xK
-
A
8
H
<
c
8
!
|
N
|
|
+
x
|
&
|
3x8
;
;
|
;
x
}
Cx
}
4Kx
A
!
|
{
x
;
8
d
X
A
!
d
xK
%
|
~
yA
x
d
x
c
x
~
x8
x
A
t
|
K
|
~
yA
L
;
c
x
!
\
~
x
x8
\
K
|
~
yA
(
{
\
l
A
h
pH
H
/
|
~
xA
;
!
h
xH
|
|
y
&
A
H
%
.
|
x
xA
H
8
8A
X
x
)
x
A
H
A
<
A
D
8
x8
t9
9
H
|
z
y
?
c
H
X
c
x
~
x
~
x
~
x
~
x
D
xK
i
|
~
y
?
c
C
xH
H
;
?
;
c
&
N
a
/
A
H
A
xH
y
A
x8
H
8
!
x
a
|
}
p
N
|
&
|
|
~
x
|
#
x
|
+
xB
<
|
3x
A
8
!
|
;
x
}
Cx
#
A
8
!
<
H
.
|
x
x
M
?
;
c
H
8
8
<
8
88
J9
H
-
|
}
xA
T
<
8
hH
/
e
x
F
x
'
x
x
x
xK
/
A
8
x
~
xK
|
~
y
?
c
a
8
/
A
H
A
xH
A
xH
)
8
!
x
a
|
}
q
}
p
N
|
|
#
x
|
+
x
|
3x
}
Cx
|
;
x
!
8
}
<
Kx
}
XSx
|
}
x
;
A
8
<
D
<
E
xK
|
~
yA
;
a
x
x8
D
e
xK
|
~
yA
d
<
}
8
A
L
a
X
A
T
A
H
P
D
\
H
H
/
|
~
xA
8
TH
|
|
y
&
A
H
|
u
yA
x8
x8
H9
H
]
|
{
yA
x
x
e
x
xH
a
|
z
yA
~
x
~
x
~
x8
8
xH
/
A
8
C
x8
|
P
|
"
H
y
|
~
yA
l
A
|
H
;
&
?
c
H
(
?
c
H
?
c
c
xH
~
xH
a
A
x8
H
mH
?
c
C
x8
H
K
8
!
x
|
N
|
|
{
x
|
3x
|
;
x
|
#
x
|
+
x
!
p
c
;
!
<
H
8
H
Y
x8
|
}
x
C
xH
x
8H
|
~
y
?
c
H
;
D
x
xH
xK
E
x8
|
}
x
xH
5
x
x
|
e
x
x
c
x
~
x8
89
K
Q
|
}
yA
8
c
x
~
x
xK
|
}
x
xH
xH
y8
!
x
|
N
|
|
#
x
|
z
x
|
+
x
c
x8
!
|
3x
|
;
x
;
xH
x8
a
8
c
xH
}
a
<
H
|
~
x
a
8H
|
|
yA
x
/
A
p
d
x
C
x
x8
8K
|
}
yA
8
C
x
x
)
x
x
x8
<
9
K
Y
|
}
yA
<
~
x
xH
!
xH
xH
H
?
c
8
!
x
|
N
|
|
#
x
|
}
x
!
H
q8
!
P
x
x
|
H
t
|
B
}
H
|
8
<
K
H
H
|
/
|
+
x
|
#
x
8
!
A
?
c
H
|
8
H
|
~
xK
/
?
c
H
X
^
x
|
|
xN
!
^
x
x
x
|
|
xN
!
^
|
}
x
x
|
|
xN
!
8
!
P
x
|
N
|
|
+
xB
}
H
|
<
j
8c
K
|
B
}
h
=
k
|
}
N
|
B
}
h
=
k
|
}
N
|
B
}
h
=
k
|
}
N
|
B
}
h
=
k
|
}
N
|
B
}
h
=
k
|
}
N
|
B
}
h
=
k
|
}
N
|
B
}
h
=
k
|
P
}
N
|
B
}
h
=
k
|
}
N
|
B
}
h
=
k
|
}
N
|
B
}
h
=
k
|
}
N
|
B
}
h
=
k
|
}
N
|
B
}
h
=
k
|
}
N
|
B
}
h
=
k
|
|
}
N
|
B
}
h
=
k
|
}
N
|
B
}
h
=
k
|
}
N
|
B
}
h
=
k
|
}
N
|
B
}
h
=
k
|
}
N
|
B
}
h
=
k
|
L
}
N
|
B
}
h
=
k
|
}
N
|
B
}
h
=
k
|
}
N
|
B
}
h
=
k
|
h
}
N
|
B
}
h
=
k
|
}
N
|
B
}
h
=
k
|
}
N
|
B
}
h
=
k
|
}
N
|
B
}
h
=
k
|
}
N
|
B
}
h
=
k
|
0
}
N
|
B
}
h
=
k
|
}
N
|
B
}
h
=
k
|
p
}
N
|
B
}
h
=
k
|
}
N
|
B
}
h
=
k
|
}
N
|
B
}
h
=
k
|
0
}
N
|
B
}
h
=
k
|
}
N
|
B
}
h
=
k
|
}
N
|
B
}
h
=
k
|
T
}
N
|
B
}
h
=
k
|
}
N
|
B
}
h
=
k
|
}
N
|
B
}
h
=
k
|
}
N
|
B
}
h
=
k
|
}
N
|
B
}
h
=
k
|
|
}
N
|
B
}
h
=
k
|
}
N
|
B
}
h
=
k
|
}
N
|
B
}
h
=
k
|
}
N
|
B
}
h
=
k
|
|
}
N
|
B
}
h
=
k
|
X
}
N
|
B
}
h
=
k
|
}
N
|
B
}
h
=
k
|
}
N
|
B
}
h
=
k
|
}
N
|
B
}
h
=
k
|
L
}
N
|
B
}
h
=
k
|
(
}
N
|
B
}
h
=
k
|
}
N
|
B
}
h
=
k
|
}
N
|
B
}
h
=
k
|
}
N
e
H
C
s
2Sq
N
_
o
;
HeDa
l
u
=
F
F
F0C1
^
A
y
mozilla
.
org
/
psm
;
1
Weave
User
PrivKey
WeaveCryptoModule
Weave
crypto
module
labs
.
mozilla
.
com
/
Weave
/
Crypto
;
1
!
"
#
%
&
'
(
)
*
+
-
.
/
0123456789
:
;
<
=
>
?
ABCDEFGHIJKLMNOPQRSTUVWXYZ
[
\
]
^
_
ABCDEFGHIJKLMNOPQRSTUVWXYZ
{
|
}
~
!
"
#
%
&
'
(
)
*
+
-
.
/
0123456789
:
;
<
=
>
?
abcdefghijklmnopqrstuvwxyz
[
\
]
^
_
abcdefghijklmnopqrstuvwxyz
{
|
}
~
?
>
=
P
vF
OF
=
5
|
x
h
L
D
T
P
|
8
=
<
=
\
=
L
=
l
=
=
l
D
!
0
!
3H
4X
0
!
"
#
X
%
*
.
(
(
=
|
=
l
P
=
=
l
L
P
T
X
\
d
h
l
p
t
x
|
A
A
A
A
A
A
A
A
(
A
A0
A4
A8
A
<
A
AD
AH
AL
AP
AT
AX
A
\
A
Al
Ap
At
Ax
A
|
A
A
A
A
A
A
A
A
A
A
A
A
A
A
A
A
A
A
A
B
B
B
B
B
B
B
B
B
(
B
B0
B4
B8
B
<
B
BD
BH
BL
BT
Bh
Bl
.
F
n
H
0
'
x
|
L
~
S
L
D
T
7
h
z
)
Z
8
8
3
{
x
D
0
J
j
P
(
|
r
G
|
D
j
D
h
7
Y
~
!
!
!
!
"
"
T
#
X
#
0
%
Y
'
(
*
*
{
.
(
0
1
\
7
3H
j
4X
5T
5
5
5
;
5
o
=
=
=
<
=
L
=
\
D
=
l
l
=
|
>
?
A
A
0
A
j
A
B
BL
Bd
6
|
*
C
S
f
y
;
L
k
+
=
S
g
?
Y
r
i
j
k
l
m
n
o
p
q
r
s
t
u
v
w
x
y
z
{
|
}
~
s
}
y
r
q
u
t
{
k
j
o
i
m
l
n
~
v
w
x
p
|
z
__mh_bundle_header
dyld_stub_binding_helper
__ZN13nsCOMPtr_baseD2Ev
__ZN13nsCOMPtr_base16begin_assignmentEv
__ZNK25nsQueryInterfaceWithErrorclERK4nsIDPPv
__ZN13nsCOMPtr_base18assign_with_AddRefEP11nsISupports
__ZN13nsCOMPtr_base25assign_from_qi_with_errorERK25nsQueryInterfaceWithErrorRK4nsID
__ZN13nsCOMPtr_base25assign_from_gs_contractidE24nsGetServiceByContractIDRK4nsID
__Z14CallGetServicePKcRK4nsIDPPv
__ZNK24nsGetServiceByContractIDclERK4nsIDPPv
__Z16NS_TableDrivenQIPvPK12QITableEntryRK4nsIDPS_
__ZN8nsMemory5CloneEPKvm
__ZN16nsGenericFactoryD1Ev
__ZN16nsGenericFactory6AddRefEv
__ZN16nsGenericFactory14QueryInterfaceERK4nsIDPPv
__ZN16nsGenericFactory14CreateInstanceEP11nsISupportsRK4nsIDPPv
__ZN16nsGenericFactory11LockFactoryEi
__ZN16nsGenericFactory13GetInterfacesEPjPPP4nsID
__ZN16nsGenericFactory20GetHelperForLanguageEjPP11nsISupports
__ZN16nsGenericFactory19GetClassDescriptionEPPc
__ZN16nsGenericFactory10GetClassIDEPP4nsID
__ZN16nsGenericFactory17GetClassIDNoAllocEP4nsID
__ZN16nsGenericFactory25GetImplementationLanguageEPj
__ZN16nsGenericFactory8GetFlagsEPj
__ZN16nsGenericFactory16SetComponentInfoEPK21nsModuleComponentInfo
__ZN16nsGenericFactory16GetComponentInfoEPPK21nsModuleComponentInfo
__ZN15nsGenericModuleC1EPKcjPK21nsModuleComponentInfoPFjP9nsIModuleEPFvS6_E
__ZN15nsGenericModule6AddRefEv
__ZN15nsGenericModule14QueryInterfaceERK4nsIDPPv
__ZN15nsGenericModule9CanUnloadEP19nsIComponentManagerPi
__Z20NS_NewGenericModule2PK12nsModuleInfoPP9nsIModule
__ZN16nsGenericFactoryC1EPK21nsModuleComponentInfo
__ZN16nsGenericFactory6CreateEP11nsISupportsRK4nsIDPPv
__Z20NS_NewGenericFactoryPP17nsIGenericFactoryPK21nsModuleComponentInfo
__ZN16nsGenericFactory7ReleaseEv
__ZN15nsGenericModule14UnregisterSelfEP19nsIComponentManagerP7nsIFilePKc
__ZN16nsGenericFactory13GetContractIDEPPc
__ZN15nsGenericModule8ShutdownEv
__ZN15nsGenericModuleD1Ev
__ZN15nsGenericModule7ReleaseEv
__ZN15nsGenericModule14AddFactoryNodeEP17nsIGenericFactory
__ZN15nsGenericModule10InitializeEP19nsIComponentManager
__ZN15nsGenericModule14GetClassObjectEP19nsIComponentManagerRK4nsIDS4_PPv
__ZN15nsGenericModule12RegisterSelfEP19nsIComponentManagerP7nsIFilePKcS5_
__ZThn4_N16nsGenericFactory6AddRefEv
__ZThn4_N16nsGenericFactory14QueryInterfaceERK4nsIDPPv
__ZThn4_N16nsGenericFactory13GetInterfacesEPjPPP4nsID
__ZThn4_N16nsGenericFactory20GetHelperForLanguageEjPP11nsISupports
__ZThn4_N16nsGenericFactory19GetClassDescriptionEPPc
__ZThn4_N16nsGenericFactory10GetClassIDEPP4nsID
__ZThn4_N16nsGenericFactory17GetClassIDNoAllocEP4nsID
__ZThn4_N16nsGenericFactory25GetImplementationLanguageEPj
__ZThn4_N16nsGenericFactory8GetFlagsEPj
__ZThn4_N16nsGenericFactory7ReleaseEv
__ZThn4_N16nsGenericFactory13GetContractIDEPPc
__ZNK10nsACString12BeginReadingEv
__ZN11WeaveCrypto14QueryInterfaceERK4nsIDPPv
__ZN11WeaveCryptoC2Ev
__ZN11WeaveCryptoC1Ev
__ZN11WeaveCrypto12GetAlgorithmEPj
__ZN11WeaveCrypto12SetAlgorithmEj
__ZN11WeaveCrypto14GetKeypairBitsEPj
__ZN11WeaveCrypto14SetKeypairBitsEj
__ZN11WeaveCrypto6AddRefEv
__ZN11WeaveCrypto12EncodeBase64EPKcjR10nsACString
__ZN11WeaveCrypto17GenerateRandomKeyER10nsACString
__ZN11WeaveCrypto16GenerateRandomIVER10nsACString
__ZN11WeaveCrypto19GenerateRandomBytesEjR10nsACString
__ZN11WeaveCrypto15EncodePublicKeyEP18SECKEYPublicKeyStrR10nsACString
__ZN11WeaveCrypto7ReleaseEv
__ZN11WeaveCrypto12DecodeBase64ERK10nsACStringPcPj
__ZN11WeaveCrypto16WrapSymmetricKeyERK10nsACStringS2_RS0_
__ZN11WeaveCrypto23DeriveKeyFromPassphraseERK10nsACStringS2_PP13PK11SymKeyStr
__ZN11WeaveCrypto16VerifyPassphraseERK10nsACStringS2_S2_S2_Pi
__ZN11WeaveCrypto18UnwrapSymmetricKeyERK10nsACStringS2_S2_S2_S2_RS0_
__ZN11WeaveCrypto14WrapPrivateKeyEP19SECKEYPrivateKeyStrRK10nsACStringS4_S4_RS2_
__ZN11WeaveCrypto16RewrapPrivateKeyERK10nsACStringS2_S2_S2_S2_RS0_
__ZN11WeaveCrypto15GenerateKeypairERK10nsACStringS2_S2_RS0_S3_
__ZN11WeaveCrypto11CommonCryptEPKcjPcPjRK10nsACStringS6_m
__ZN11WeaveCrypto7EncryptERK10nsACStringS2_S2_RS0_
__ZN11WeaveCrypto7DecryptERK10nsACStringS2_S2_RS0_
__ZN18nsCString_externalC2ERK10nsACString
__ZN8nsCOMPtrI11nsISupportsEC2E24nsGetServiceByContractID
__ZN18nsCString_externalC2Ev
__ZN18nsCString_externalD2Ev
__Z22WeaveCryptoConstructorP11nsISupportsRK4nsIDPPv
__ZN21nsIComponentRegistrar11COMTypeInfoIiE4kIIDE
__ZN9nsIModule11COMTypeInfoIiE4kIIDE
__ZN17nsIGenericFactory11COMTypeInfoIiE4kIIDE
__ZN12nsIClassInfo11COMTypeInfoIiE4kIIDE
__ZN10nsIFactory11COMTypeInfoIiE4kIIDE
__ZN11nsISupports11COMTypeInfoIiE4kIIDE
__ZN12IWeaveCrypto11COMTypeInfoIiE4kIIDE
__ZN17nsLowerUpperUtils12kLower2UpperE
__ZN17nsLowerUpperUtils12kUpper2LowerE
dyld__mach_header
_components
__ZTV16nsGenericFactory
__ZTV15nsGenericModule
__ZZN16nsGenericFactory14QueryInterfaceERK4nsIDPPvE5table
__ZZN15nsGenericModule14QueryInterfaceERK4nsIDPPvE5table
__ZTV11WeaveCrypto
__ZZN11WeaveCrypto14QueryInterfaceERK4nsIDPPvE5table
_kModuleInfo
_NSGetModule
_NS_Alloc
_NS_CStringContainerFinish
_NS_CStringContainerInit
_NS_CStringCopy
_NS_CStringGetData
_NS_CStringSetData
_NS_GetServiceManager
_PK11_AlgtagToMechanism
_PK11_CipherOp
_PK11_CreateContextBySymKey
_PK11_CreatePBEV2AlgorithmID
_PK11_DestroyContext
_PK11_DigestFinal
_PK11_ExtractKeyValue
_PK11_FreeSlot
_PK11_FreeSymKey
_PK11_GenerateKeyPairWithFlags
_PK11_GenerateRandom
_PK11_GetBlockSize
_PK11_GetIVLength
_PK11_GetInternalKeySlot
_PK11_GetInternalSlot
_PK11_GetKeyData
_PK11_GetPadMechanism
_PK11_ImportSymKey
_PK11_KeyGen
_PK11_PBEKeyGen
_PK11_ParamFromIV
_PK11_PubUnwrapSymKey
_PK11_PubWrapSymKey
_PK11_SetPrivateKeyNickname
_PK11_UnwrapPrivKey
_PK11_WrapPrivKey
_PL_Base64Decode
_PL_Base64Encode
_PR_AtomicDecrement
_PR_AtomicIncrement
_PR_Free
_PR_Malloc
_SECITEM_FreeItem
_SECKEY_DecodeDERSubjectPublicKeyInfo
_SECKEY_DestroyPrivateKey
_SECKEY_DestroyPublicKey
_SECKEY_DestroySubjectPublicKeyInfo
_SECKEY_EncodeDERSubjectPublicKeyInfo
_SECKEY_ExtractPublicKey
_SECOID_DestroyAlgorithmID
__ZdlPv
__Znwm
_memcpy
_strcpy
_strlen
(
H
__TEXT
0
0
__text
__TEXT
__const_coal
__TEXT
-
p
-
__cstring
__TEXT
-
q
-
__const
__TEXT
.
.
__DATA
0
0
__data
__DATA
0
X
0
__dyld
__DATA
X0
X0
__const
__DATA
0
|
0
__IMPORT
__pointers
__IMPORT
__jump_table
__IMPORT
8
__LINKEDIT
P
0
P
!
?
Y
+
'
M
R
XZ
P
j
j
k
3
xY
8
P
B
8
executable_path
/
libxpcom
.
dylib
8
executable_path
/
libnspr4
.
dylib
<
executable_path
/
libsmime3
.
dylib
8
executable_path
/
libssl3
.
dylib
8
executable_path
/
libnss3
.
dylib
<
executable_path
/
libnssutil3
.
dylib
8
executable_path
/
libplds4
.
dylib
8
executable_path
/
libplc4
.
dylib
4
/
usr
/
lib
/
libstdc
+
+
.
6
.
dylib
4
/
usr
/
lib
/
libgcc_s
.
1
.
dylib
4
X
/
usr
/
lib
/
libSystem
.
B
.
dylib
X
'
3
(
U
t
P
U
V
t
P
^
]
U
WV
t
#
L
t
G
t
^
_
]
U
WV
t
P
7
t
P
^
_
]
U
V
M
1
OU
U
t
P
^
]
U
V
4
U
M
E
}
1
OU
U
t
P
4
^
]
U
WV
E
}
6
U
t
M
L
M
L
M
L
P
^
_
]
U
V
L
T
x
^
]
U
WV
E
2
u
E
^
_
]
E
R
2
t
E
;
u
A
;
F
u
A
;
F
u
A
;
F
u
u
w
4
P
E
01
U
WV
}
<
5
t
|
E
D
4
6
^
_
]
U
VS
u
%
&
F
F
t
P
t
F
0
t
[
^
]
U
E
]
06
U
S
E
M
U
&
]
U
WV
}
u
U
E
H
t
U
u
}
^
_
]
T
^
_
]
U
1
]
U
V
u
U
E
H
(
t
U
u
^
]
1
^
]
U
V
u
U
E
H
t
U
u
^
]
1
^
]
U
WV
u
F
tG
1
~
4
E
t
F
D
p5
1
^
_
]
^
_
]
E
1
U
D
E
/
U
%
U
M
E
P
B
B
A
B
A
B
A
1
]
U
E
1
]
U
E
P4
E
1
]
U
E
M
P
t
R0
t
H
t
Q0
t
1
]
U
E
P
E
1
]
U
E
U
P
U
P
U
P
U
P
U
P
]
U
E
]
3
U
S
X
E
M
U
"
]
U
E
t
]
]
U
WV
u
3
F
D
F
D
F
D
F
D
F
D
<
t
E
8
<
P
1
^
_
]
^
_
]
U
VS
E
M
p
"
"
P
H
t
A0
t
0
[
^
]
U
WV
E
u_
3
D
tK
U
T
U
T
4
u
^
_
]
4
4
2
^
_
]
^
_
]
^
_
]
U
VS
E
D
D
L
x
E
M
L
R
x
E
U
[
^
]
E
R
U
WV
u
F
1
u
F
t
4
W
4
2
^
_
]
U
WVS
L
2
E
E
U
R
E
E
E
U
U
E
E
U
B
t
T
U
T
U
T
U
}
u
u
}
E
U
E
M
t
U
T
U
T
P
E
E
8
E
A
E
U
E
;
P
v
1
L
[
^
_
]
U
WV
u
F
P
tH
1
0
E
t
F
D
0
1
^
_
]
^
_
]
E
1
U
WV
E
E
p
u
~
4
0
E
x
u
E
H
t
H
t
E
^
_
]
^
_
]
U
U
U
]
U
WV
u
F
/
u
F
t
4
4
0
^
_
]
U
WV
}
t
;
/
E
E
A
E
F
E
p
1
^
_
]
^
_
]
U
WVS
l
E
E
E
U
B
t
E
E
E
U
U
E
U
E
U
E
U
E
E
}
U
r
B
E
E
E
F
t
F4
t
E
E
t
?
~
tp
U
E
D
F
D
D
F
D
Q
xZ
E
8
E
U
E
9P
w
E
1
E
p
l
[
^
_
]
1
l
[
^
_
]
E
D
U
J
E
<
U
WV
P
}
E
E
G
w
M
M
1
8
9
tx
F
E
U
9V
u
U
;
B
u
E
;
B
u
U
B
U
;
B
u
E
}
t
x
E
M
L
M
L
v
T
P
^
_
]
P
^
_
]
U
T
<
/
U
WVS
L
x
E
E
E
E
p
H
1
U
U
V
tz
E
E
U
U
E
U
E
U
E
U
E
q
M
t4
E
D
E
D
E
D
F
D
D
F
D
R
E
E
xT
E
F
t
(
t
U
T
U
T
U
T
U
E
x
8
E
;
x
>
E
L
[
^
_
]
E
+
D
D
D
D
8
D
Z
D
D
D
D
D
D
U
(
D
E
D
E
*
E
U
S
[
U
E
M
]
U
(
]
E
[
u
u
D
4
9
]
u
U
U
E
P
E
1
U
E
U
P
1
U
E
P
E
1
U
E
U
P
1
U
U
B
B
U
WV
E
u
u
4
E
t
)
4
Z
U
<
<
4
*
t3
E
t
D
E
)
E
|
t
L
)
4
)
1
^
_
U
WV
0
U
B
=
t
=
t
=
t
E
I
)
t
t
D
D
D
8
)
E
t
?
(
u
=
4
)
t
/
E
D
B
D
B
U
D
E
<
(
E
4
(
E
0
^
_
U
WV
U
B
J
(
(
=
w
>
D
<
Y
(
x
&
U
E
t
|
D
'
I
^
_
U
u
u
}
w
>
t
<
'
x
&
E
t
|
D
E
I
u
}
U
E
8
(
t
E
D
B
D
B
D
E
j
I
U
S
U
[
B
H
B
u
B
t
+
'
1
[
U
WV
0
E
D
E
E
E
U
D
U
T
&
u
U
1
E
U
D
D
&
U
E
D
D
]
&
<
E
z
U
D
T
E
0
&
U
|
=
)
F
U
D
E
D
%
|
=
)
E
;
8wI
8
U
E
D
T
%
U
U
t
T
G
&
W
E
0
^
_
U
WV
0
E
D
E
E
|
D
E
i
E
U
}
E
E
E
D
E
E
|
T
%
L
E
}
E
E
E
E
E
1
%
U
B
E
D
D
D
D
T
<
E
.
%
t
~
5
%
t
^
R
U
T
T
T
uU
E
U
D
E
D
E
D
0
1
t
<
0
^
_
U
WV
E
D
E
U
E
E
E
D
E
E
D
>
#
U
E
|
E
E
D
E
D
/
E
}
E
E
E
P
E
D
D
D
D
&
T
"
tV
#
tK
E
4
D
D
D
|
#
U
D
<
d
#
4
1
"
E
u
^
_
U
WV
E
E
U
D
E
E
E
E
|
D
E
U
E
}
E
E
D
E
T
D
E
E
U
D
E
E
|
T
O
E
U
}
E
E
B
}
!
!
E
D
<
!
!
u
E
D
(
E
D
D
0
T
D
D
E
D
D
D
D
|
D
E
!
t
U
g
!
E
t
t
t
D
^
_
U
WV
0
E
D
E
E
E
E
D
E
|
E
U
}
E
E
E
D
E
E
|
T
U
E
U
E
}
E
E
D
E
T
U
D
E
U
D
E
E
|
D
S
E
U
}
E
E
B
"
o
7
E
D
<
h
2
E
D
(
E
D
D
0
T
D
D
E
D
D
D
D
|
D
E
D
|
D
D
C
<
E
D
B
D
B
U
D
q
<
E
t
t
t5
D
'
y
0
^
_
U
WV
E
D
E
E
D
E
D
E
b
E
U
D
E
E
t
T
E
U
u
E
E
B
E
D
4
U
E
E
D
E
t
E
E
D
E
D
|
D
B
D
<
E
]
u
(
E
U
D
E
D
E
D
1
x
1
^
_
U
WV
E
D
E
E
E
E
D
E
|
E
U
E
}
E
E
D
E
T
U
D
E
U
D
E
E
|
D
M
~
E
U
}
E
E
B
i
E
D
<
b
E
D
(
E
D
|
T
D
0
D
E
D
D
D
D
D
D
tZ
E
U
|
D
E
T
U
D
E
T
<
H
E
t
!
t
t
D
k
^
_
U
WV
S
L
U
[
E
B
E
E
E
E
D
E
D
D
J
D
D
<
r
E
tj
D
E
uQ
U
E
T
U
D
E
T
U
D
E
T
x
E
U
D
E
T
T
y
E
t
y
E
t
U
b
t
<
L
[
^
_
U
WV
U
E
D
D
E
E
E
D
Z
E
U
D
E
|
D
-
U
}
E
E
E
E
E
E
E
B
3
E
D
<
2
E
D
E
D
D
|
D
<
D
E
T
D
G
t
|
U
E
2
D
E
U
D
E
<
t
T
D
U
E
)
E
U
t
D
T
<
x
[
U
E
T
t
/
D
.
D
<
|
^
_
U
WV
P
U
B
C
D
o
U
D
E
E
D
E
E
U
U
D
U
E
D
D
E
U
t
D
|
T
U
D
E
T
U
T
x
E
U
|
D
E
T
<
U
n
P
^
_
U
WV
E
u
t
D
t
D
E
E
E
E
E
M
E
D
E
|
D
E
xY
E
D
|
D
E
D
E
D
E
D
E
D
E
x
E
D
E
D
E
N
E
<
^
_
U
u
u
}
}
<
u
u
}
}
U
S
E
[
U
[
U
U
U
E
}
u
E
uF
b
t
'
4
P
U
4
T
U
T
4
P
u
}
U
Y
E
E
E
H
e
H
C
2
sqS
N
_
o
;
HeDa
l
u
=
F
FC0F
^
1
A
y
mozilla
.
org
/
psm
;
1
Weave
User
PrivKey
WeaveCryptoModule
Weave
crypto
module
labs
.
mozilla
.
com
/
Weave
/
Crypto
;
1
!
"
#
%
&
'
(
)
*
+
-
.
/
0123456789
:
;
<
=
>
?
ABCDEFGHIJKLMNOPQRSTUVWXYZ
[
\
]
^
_
ABCDEFGHIJKLMNOPQRSTUVWXYZ
{
|
}
~
!
"
#
%
&
'
(
)
*
+
-
.
/
0123456789
:
;
<
=
>
?
abcdefghijklmnopqrstuvwxyz
[
\
]
^
_
abcdefghijklmnopqrstuvwxyz
{
|
}
~
/
.
-
P
v
F
OF
-
2
~
:
l
X
h
0
f
*
p
4
>
R
\
H
>
F
<
-
\
-
L
-
l
-
-
l
-
x
.
4
F
V
h
*
+
&
z
n
|
-
l
-
P
-
0
l
-
0
0
0
0
40
80
h0
l0
p0
t0
x0
|
0
0
0
0
0
0
0
0
0
0
0
0
0
0
0
0
0
0
0
0
0
0
0
0
0
0
0
1
1
(
1
01
81
H1
P1
h1
l1
p1
t1
x1
|
1
1
1
1
1
1
1
1
1
1
1
1
1
1
1
1
.
4
F
J
n
p
'
x
P
N
L
~
2
:
l
S
0
X
h
7
~
z
)
Z
F
d
3
{
>
z
0
J
j
6
(
r
*
G
4
|
>
H
R
\
D
f
j
p
z
~
.
*
D
4
g
F
V
h
x
R
z
.
l
O
Z
#
n
&
-
'
g
*
+
(
T
1
x
N
k
-
-
<
-
L
-
M
\
-
t
l
-
|
-
.
/
0
%
0
1
0
I
0
1
H1
1
1
1
(
5
?
Z
s
4
F
\
k
|
+
>
K
[
m
#
7
I
o
(
/
7
k
l
m
n
o
p
q
r
s
t
u
v
w
x
y
z
{
|
}
~
__mh_bundle_header
dyld_stub_binding_helper
__ZN13nsCOMPtr_baseD2Ev
__ZN13nsCOMPtr_base16begin_assignmentEv
__ZNK25nsQueryInterfaceWithErrorclERK4nsIDPPv
__ZN13nsCOMPtr_base18assign_with_AddRefEP11nsISupports
__ZN13nsCOMPtr_base25assign_from_qi_with_errorERK25nsQueryInterfaceWithErrorRK4nsID
__ZN13nsCOMPtr_base25assign_from_gs_contractidE24nsGetServiceByContractIDRK4nsID
__Z14CallGetServicePKcRK4nsIDPPv
__ZNK24nsGetServiceByContractIDclERK4nsIDPPv
__Z16NS_TableDrivenQIPvPK12QITableEntryRK4nsIDPS_
__ZN8nsMemory5CloneEPKvm
__ZN16nsGenericFactoryD1Ev
__ZN16nsGenericFactory6AddRefEv
__ZN16nsGenericFactory14QueryInterfaceERK4nsIDPPv
__ZN16nsGenericFactory14CreateInstanceEP11nsISupportsRK4nsIDPPv
__ZN16nsGenericFactory11LockFactoryEi
__ZN16nsGenericFactory13GetInterfacesEPjPPP4nsID
__ZN16nsGenericFactory20GetHelperForLanguageEjPP11nsISupports
__ZN16nsGenericFactory19GetClassDescriptionEPPc
__ZN16nsGenericFactory10GetClassIDEPP4nsID
__ZN16nsGenericFactory17GetClassIDNoAllocEP4nsID
__ZN16nsGenericFactory25GetImplementationLanguageEPj
__ZN16nsGenericFactory8GetFlagsEPj
__ZN16nsGenericFactory16SetComponentInfoEPK21nsModuleComponentInfo
__ZN16nsGenericFactory16GetComponentInfoEPPK21nsModuleComponentInfo
__ZN15nsGenericModuleC1EPKcjPK21nsModuleComponentInfoPFjP9nsIModuleEPFvS6_E
__ZN15nsGenericModule6AddRefEv
__ZN15nsGenericModule14QueryInterfaceERK4nsIDPPv
__ZN15nsGenericModule9CanUnloadEP19nsIComponentManagerPi
__Z20NS_NewGenericModule2PK12nsModuleInfoPP9nsIModule
__ZN16nsGenericFactoryC1EPK21nsModuleComponentInfo
__ZN16nsGenericFactory6CreateEP11nsISupportsRK4nsIDPPv
__Z20NS_NewGenericFactoryPP17nsIGenericFactoryPK21nsModuleComponentInfo
__ZN16nsGenericFactory7ReleaseEv
__ZN15nsGenericModule14UnregisterSelfEP19nsIComponentManagerP7nsIFilePKc
__ZN16nsGenericFactory13GetContractIDEPPc
__ZN15nsGenericModule8ShutdownEv
__ZN15nsGenericModuleD1Ev
__ZN15nsGenericModule7ReleaseEv
__ZN15nsGenericModule14AddFactoryNodeEP17nsIGenericFactory
__ZN15nsGenericModule10InitializeEP19nsIComponentManager
__ZN15nsGenericModule14GetClassObjectEP19nsIComponentManagerRK4nsIDS4_PPv
__ZN15nsGenericModule12RegisterSelfEP19nsIComponentManagerP7nsIFilePKcS5_
__ZThn4_N16nsGenericFactory6AddRefEv
__ZThn4_N16nsGenericFactory14QueryInterfaceERK4nsIDPPv
__ZThn4_N16nsGenericFactory13GetInterfacesEPjPPP4nsID
__ZThn4_N16nsGenericFactory20GetHelperForLanguageEjPP11nsISupports
__ZThn4_N16nsGenericFactory19GetClassDescriptionEPPc
__ZThn4_N16nsGenericFactory10GetClassIDEPP4nsID
__ZThn4_N16nsGenericFactory17GetClassIDNoAllocEP4nsID
__ZThn4_N16nsGenericFactory25GetImplementationLanguageEPj
__ZThn4_N16nsGenericFactory8GetFlagsEPj
__ZThn4_N16nsGenericFactory7ReleaseEv
__ZThn4_N16nsGenericFactory13GetContractIDEPPc
___i686
.
get_pc_thunk
.
cx
___i686
.
get_pc_thunk
.
bx
__ZNK10nsACString12BeginReadingEv
__ZN11WeaveCrypto14QueryInterfaceERK4nsIDPPv
__ZN11WeaveCryptoC2Ev
__ZN11WeaveCryptoC1Ev
__ZN11WeaveCrypto12GetAlgorithmEPj
__ZN11WeaveCrypto12SetAlgorithmEj
__ZN11WeaveCrypto14GetKeypairBitsEPj
__ZN11WeaveCrypto14SetKeypairBitsEj
__ZN11WeaveCrypto6AddRefEv
__ZN11WeaveCrypto12EncodeBase64EPKcjR10nsACString
__ZN11WeaveCrypto17GenerateRandomKeyER10nsACString
__ZN11WeaveCrypto16GenerateRandomIVER10nsACString
__ZN11WeaveCrypto19GenerateRandomBytesEjR10nsACString
__ZN11WeaveCrypto15EncodePublicKeyEP18SECKEYPublicKeyStrR10nsACString
__ZN11WeaveCrypto7ReleaseEv
__ZN11WeaveCrypto12DecodeBase64ERK10nsACStringPcPj
__ZN11WeaveCrypto16WrapSymmetricKeyERK10nsACStringS2_RS0_
__ZN11WeaveCrypto23DeriveKeyFromPassphraseERK10nsACStringS2_PP13PK11SymKeyStr
__ZN11WeaveCrypto16VerifyPassphraseERK10nsACStringS2_S2_S2_Pi
__ZN11WeaveCrypto18UnwrapSymmetricKeyERK10nsACStringS2_S2_S2_S2_RS0_
__ZN11WeaveCrypto14WrapPrivateKeyEP19SECKEYPrivateKeyStrRK10nsACStringS4_S4_RS2_
__ZN11WeaveCrypto16RewrapPrivateKeyERK10nsACStringS2_S2_S2_S2_RS0_
__ZN11WeaveCrypto15GenerateKeypairERK10nsACStringS2_S2_RS0_S3_
__ZN11WeaveCrypto11CommonCryptEPKcjPcPjRK10nsACStringS6_m
__ZN11WeaveCrypto7EncryptERK10nsACStringS2_S2_RS0_
__ZN11WeaveCrypto7DecryptERK10nsACStringS2_S2_RS0_
__ZN18nsCString_externalC2ERK10nsACString
__ZN8nsCOMPtrI11nsISupportsEC2E24nsGetServiceByContractID
__ZN18nsCString_externalC2Ev
__ZN18nsCString_externalD2Ev
__Z22WeaveCryptoConstructorP11nsISupportsRK4nsIDPPv
__ZN21nsIComponentRegistrar11COMTypeInfoIiE4kIIDE
__ZN9nsIModule11COMTypeInfoIiE4kIIDE
__ZN17nsIGenericFactory11COMTypeInfoIiE4kIIDE
__ZN12nsIClassInfo11COMTypeInfoIiE4kIIDE
__ZN10nsIFactory11COMTypeInfoIiE4kIIDE
__ZN11nsISupports11COMTypeInfoIiE4kIIDE
__ZN12IWeaveCrypto11COMTypeInfoIiE4kIIDE
__ZN17nsLowerUpperUtils12kLower2UpperE
__ZN17nsLowerUpperUtils12kUpper2LowerE
dyld__mach_header
_components
__ZTV16nsGenericFactory
__ZTV15nsGenericModule
__ZZN16nsGenericFactory14QueryInterfaceERK4nsIDPPvE5table
__ZZN15nsGenericModule14QueryInterfaceERK4nsIDPPvE5table
__ZTV11WeaveCrypto
__ZZN11WeaveCrypto14QueryInterfaceERK4nsIDPPvE5table
_kModuleInfo
_NSGetModule
_NS_Alloc
_NS_CStringContainerFinish
_NS_CStringContainerInit
_NS_CStringCopy
_NS_CStringGetData
_NS_CStringSetData
_NS_GetServiceManager
_PK11_AlgtagToMechanism
_PK11_CipherOp
_PK11_CreateContextBySymKey
_PK11_CreatePBEV2AlgorithmID
_PK11_DestroyContext
_PK11_DigestFinal
_PK11_ExtractKeyValue
_PK11_FreeSlot
_PK11_FreeSymKey
_PK11_GenerateKeyPairWithFlags
_PK11_GenerateRandom
_PK11_GetBlockSize
_PK11_GetIVLength
_PK11_GetInternalKeySlot
_PK11_GetInternalSlot
_PK11_GetKeyData
_PK11_GetPadMechanism
_PK11_ImportSymKey
_PK11_KeyGen
_PK11_PBEKeyGen
_PK11_ParamFromIV
_PK11_PubUnwrapSymKey
_PK11_PubWrapSymKey
_PK11_SetPrivateKeyNickname
_PK11_UnwrapPrivKey
_PK11_WrapPrivKey
_PL_Base64Decode
_PL_Base64Encode
_PR_AtomicDecrement
_PR_AtomicIncrement
_PR_Free
_PR_Malloc
_SECITEM_FreeItem
_SECKEY_DecodeDERSubjectPublicKeyInfo
_SECKEY_DestroyPrivateKey
_SECKEY_DestroyPublicKey
_SECKEY_DestroySubjectPublicKeyInfo
_SECKEY_EncodeDERSubjectPublicKeyInfo
_SECKEY_ExtractPublicKey
_SECOID_DestroyAlgorithmID
__ZdlPv
__Znwm
_memcpy
_strcpy
