ELF
(
4
h
4
(
!
dz
dz
P
T
T
T
8
8
Q
td
a
y
>
B
1
=
5
w
*
;
"
F
p
T
d
m
b
W
t
k
A
:
[
-
'
v
L
E
N
Q
q
J
K
8
\
g
C
+
<
o
Y
_
]
u
6
7
l
!
0
c
a
^
H
3
r
(
M
/
Z
P
U
s
n
R
O
f
2
9
e
&
i
4
.
?
D
I
#
V
)
j
h
X
x
S
G
%
%
O
d
y
M
0
x
E9
aKAB
HHO
P
R
T
V
X
Y
Z
_
a
b
d
e
g
h
i
j
k
l
n
o
q
s
t
u
w
~
O
s
]
Vhz
E
v
V
>
w
g
.
HN
6
y
u
qEpM
N
-
u
Fi
-
g0
M
K
lz
j
c5
C
qX
|
YT
W
1P
?
CE
y
c
TU
G
A
F
6
+
V
W
p
I
H
a
a
[
C
/
/
r
R
~
R
=
&
D
l
Y
9
1
b
u
"
/
5
C
>
+
o
.
>
I
)
!
(
w
|
<
l
)
b
7
B
w
!
k
4
\
)
.
=
a
s
x
-
o
>
%
"
:
)
(
)
>
&
/
p1
m
6
t
L
!
<
9
.
;
Y
(
J
)
n
8
L
!
P
t
*
x
>
1
"
<
T
+
}
?
(
>
=
a
R7
w
!
0
"
7
H
z
^
0
}
__gmon_start__
_init
_fini
__cxa_finalize
_Jv_RegisterClasses
_ZN11WeaveCrypto6AddRefEv
_ZN11WeaveCryptoD2Ev
_ZTV11WeaveCrypto
_ZN11WeaveCryptoD1Ev
_ZN11WeaveCrypto12GetAlgorithmEPj
_ZN11WeaveCrypto12SetAlgorithmEj
_ZN11WeaveCrypto14GetKeypairBitsEPj
_ZN11WeaveCrypto14SetKeypairBitsEj
_ZN18nsCString_externalC1ERK10nsACString
NS_CStringContainerInit
NS_CStringCopy
_ZNK10nsACString6LengthEv
NS_CStringGetData
_ZN11WeaveCrypto12DecodeBase64ERK10nsACStringPcPj
PL_Base64Decode
NS_CStringContainerFinish
_ZN11WeaveCrypto23DeriveKeyFromPassphraseERK10nsACStringS2_PP13PK11SymKeyStr
PK11_CreatePBEV2AlgorithmID
PK11_GetInternalSlot
PK11_PBEKeyGen
SECOID_DestroyAlgorithmID
PK11_FreeSlot
_ZN11WeaveCrypto16VerifyPassphraseERK10nsACStringS2_S2_S2_Pi
PK11_AlgtagToMechanism
PK11_GetPadMechanism
PK11_ParamFromIV
PK11_UnwrapPrivKey
SECKEY_DestroyPrivateKey
PK11_FreeSymKey
SECITEM_FreeItem
_ZN11WeaveCrypto11CommonCryptEPKcjPcPjRK10nsACStringS6_m
PK11_GetInternalKeySlot
PK11_ImportSymKey
PK11_CreateContextBySymKey
PK11_CipherOp
PK11_DigestFinal
PK11_DestroyContext
_ZN11WeaveCrypto7DecryptERK10nsACStringS2_S2_RS0_
PR_Malloc
NS_CStringSetData
PR_Free
_ZN11WeaveCrypto12DecodeBase64ERK10nsACStringRS0_
_ZN11WeaveCrypto12EncodeBase64EPKcjR10nsACString
PL_Base64Encode
_ZN11WeaveCrypto18UnwrapSymmetricKeyERK10nsACStringS2_S2_S2_S2_RS0_
PK11_PubUnwrapSymKey
PK11_ExtractKeyValue
PK11_GetKeyData
_ZN11WeaveCrypto16WrapSymmetricKeyERK10nsACStringS2_RS0_
SECKEY_DecodeDERSubjectPublicKeyInfo
SECKEY_ExtractPublicKey
PK11_PubWrapSymKey
SECKEY_DestroySubjectPublicKeyInfo
SECKEY_DestroyPublicKey
_ZN11WeaveCrypto17GenerateRandomKeyER10nsACString
PK11_KeyGen
_ZN11WeaveCrypto16GenerateRandomIVER10nsACString
PK11_GetIVLength
PK11_GenerateRandom
_ZN11WeaveCrypto19GenerateRandomBytesEjR10nsACString
_ZN11WeaveCrypto15EncodePublicKeyEP18SECKEYPublicKeyStrR10nsACString
SECKEY_EncodeDERSubjectPublicKeyInfo
_ZN11WeaveCrypto14WrapPrivateKeyEP19SECKEYPrivateKeyStrRK10nsACStringS4_S4_RS2_
PK11_WrapPrivKey
_ZN11WeaveCrypto16RewrapPrivateKeyERK10nsACStringS2_S2_S2_S2_RS0_
_ZN11WeaveCrypto15GenerateKeypairERK10nsACStringS2_S2_RS0_S3_
PK11_GenerateKeyPairWithFlags
PK11_SetPrivateKeyNickname
_ZN11WeaveCrypto7EncryptERK10nsACStringS2_S2_RS0_
PK11_GetBlockSize
_ZN11WeaveCrypto12EncodeBase64ERK10nsACStringRS0_
_ZN11WeaveCryptoC1Ev
_ZN11nsISupports11COMTypeInfoIiE4kIIDE
_ZN11WeaveCryptoC2Ev
_ZN11WeaveCrypto14QueryInterfaceERK4nsIDPPv
_ZN11WeaveCrypto7ReleaseEv
_ZdlPv
_ZTV12IWeaveCrypto
__cxa_pure_virtual
_ZTV11nsISupports
_ZN12IWeaveCrypto11COMTypeInfoIiE4kIIDE
NSGetModule
_Znwj
NS_GetComponentManager
NS_GetServiceManager
memcpy
PR_AtomicIncrement
NS_Alloc
strcpy
PR_AtomicDecrement
NS_CStringGetMutableData
NS_StringGetMutableData
NS_UTF16ToCString
NS_CStringContainerInit2
NS_StringGetData
NS_StringContainerInit2
snprintf
NS_CStringSetDataRange
memcmp
NS_StringContainerInit
NS_CStringToUTF16
NS_StringSetDataRange
NS_StringContainerFinish
NS_StringCopy
NS_CStringCloneData
PR_sscanf
stderr
vfprintf
NS_GetMemoryManager
NS_Free
NS_Realloc
memmove
libxpcom
.
so
libnspr4
.
so
libsmime3
.
so
libssl3
.
so
libnss3
.
so
libnssutil3
.
so
libplds4
.
so
libplc4
.
so
libstdc
+
+
.
so
.
6
libm
.
so
.
6
libgcc_s
.
so
.
1
libpthread
.
so
.
0
libc
.
so
.
6
_edata
__bss_start
_end
WeaveCrypto
.
so
CXXABI_1
.
3
GLIBCXX_3
.
4
GLIBC_2
.
1
.
3
GLIBC_2
.
0
NSS_3
.
12
NSS_3
.
10
.
2
NSS_3
.
4
NSS_3
.
2
NSS_3
.
3
<
0
k
t
)
s
0
s
i
ii
rd
{
d
D
&
B
&
C
&
(
0
P
h
l
p
t
x
|
H
P
c
m
2f
m
l
m
P
D
q
H
Q
L
_
P
^
T
h
X
Z
\
U
a
d
f
h
O
l
c
p
s
t
Y
x
b
|
e
o
*
*
*
*
*
*
*
*
*
*
*
*
*
*
*
*
*
*
*
*
*
*
*
*
*
*
*
*
*
*
*
*
*
*
*
*
*
*
*
*
*
*
(
*
*
0
*
4
*
8
*
<
*
*
D
*
H
*
L
*
P
*
X
t
(
t
X
t
t
i
K
w
R
V
(
0
4
!
8
"
<
#
D
%
H
&
L
'
P
(
T
)
X
+
\
-
d
.
h
r
l
\
p
W
t
u
x
/
|
0
1
2
3
4
5
6
]
l
7
8
9
:
;
<
=
>
?
m
A
B
C
D
E
F
G
H
I
J
K
L
M
N
U
S
[
b
t
4T
X
[
h
h
h
h
h
h
(
h0
(
h8
p
h
0
hH
P
4
hP
8
hX
0
<
h
hh
D
hp
H
hx
L
h
P
h
T
h
X
h
\
h
h
d
h
h
h
p
l
h
p
h
P
t
h
x
h
0
|
h
h
h
h
h
h
h
h
h
h
(
h0
h8
p
h
hH
P
hP
hX
0
h
hh
hp
hx
h
h
h
h
h
h
h
h
p
h
h
P
h
h
0
h
h
h
h
h
h
h
h
h
h
(
h0
(
h8
p
h
0
hH
P
4
hP
8
hX
0
<
h
hh
D
hp
H
hx
L
h
P
h
T
h
X
h
\
h
U
VS
z
\
u
]
t
h
d
)
p
9
s
A
d
9
r
[
^
]
U
S
.
[
l
t
t
l
[
]
U
U
B
B
]
[
U
U
]
[
U
U
]
U
E
P
E
1
]
U
E
U
P
1
]
U
E
P
E
1
]
U
E
U
P
1
]
U
WVS
-
[
u
E
E
P
_
u
u
E
1
u
u
^
u
<
)
Y
u
Z
|
=
u
)
)
X
u
d
|
=
)
E
98r5
8
u
Y
u
O
)
u
VP
W
E
P
w
e
[
^
_
]
U
WVS
X
%
Z
D
u
u
}
V
1
4
(
4
E
E
E
E
PR
u
u
1
}
E
E
E
U
P
PP
E
Ph
j
h
&
RR
tB
o
t7
j
j
E
PWV
w
U
j
W
4
1
E
8
u
E
P
a
e
[
^
_
]
U
WVS
L
E
3
Y
E
PR
u
u
E
E
E
%
1
}
E
E
E
P
u
u
u
U
k
L
E
P
P
u
u
E
1
}
E
E
E
U
p
U
RR
U
RP
Y
u
1
s
u
a
j
j
E
Pj
j
j
E
j
P
u
W
t
(
U
P
1
E
t
P
t
W
t
PPj
E
e
[
^
_
]
U
WVS
L
u
E
P
G
W
P
u
E
E
V
F
E
P
R
u
V
1
}
}
E
E
E
E
E
U
v
:
PP
E
PW
PPj
E
P
u
j
W
P
u
W
tm
E
8PP
u
u
E
WP
u
V
U
E
)
E
U
WPRV
xw
U
E
p
t
t
VVj
:
e
[
^
_
]
QQj
V
^
U
WVS
4
U
(
u
V
4
E
E
E
X
u
t
}
u
f
E
PWV
u
x9h
u
u
E
P
u
u
W
u
x
P
u
u
u
u
<
e
[
^
_
]
U
WV
S
i
6T
(
u
E
t
>
E
PW
u
u
]
y
W
[
P1
u
W
u
j
<
B
e
[
^
_
]
U
WVS
}
S
u
!
u
V
Y_V
u
4
K
1
G
P
E
=
t
'
RVW
u
t
u
V
u
4
1
e
[
^
_
]
U
WVS
L0
E
P
R
S
V
u
u
E
E
E
N
1
}
E
u
E
E
E
PV
u
u
1
}
E
u
E
E
P
u
u
u
[
E
P
V
u
u
E
1
}
E
u
E
E
p
Q
PP
}
WV
_
j
j
E
Pj
j
j
Wj
E
P
V
u
t
{
j
h
V
E
P
P
V
u
p
p
u
w
~
V
\
E
t
P
I
t
t
PPj
e
[
^
_
]
u
U
WVS
L0
E
P
P
P
u
u
E
1
}
E
E
E
E
E
P
P
u
u
s
K
}
}
E
E
E
E
E
E
p
PPj
E
Ph
j
R
h
tt
E
P
?
t
[
P
D
tK
j
q
U
R
VP
ux
u
u
u
u
X
t
(
t
n
e
[
^
_
]
V
U
WVS
U
N
B
=
t
=
t
=
U
E
ti
j
V
j
h
P
t8
P
d
uG
W
t7
u
p
p
u
<
u
e
[
^
_
]
W
U
WVS
E
M
p
8
=
w
/
PPV
W
x
u
VW
u
!
e
[
^
_
]
U
WVS
u
l
9M
w
/
PPV
W
x
x
u
VW
u
B
!
e
[
^
_
]
U
S
L
u
D
t
u
p
p
u
!
]
U
WVS
E
P
L
u
u
u
E
V
E
P
V
u
u
E
1
}
E
u
E
E
p
L
QQ
E
PV
Z
tz1
}
Rj
E
E
P
E
E
V
u
u
p
j
X
u
u
u
u
u
u
!
e
[
^
_
]
U
WVS
<
E
P
SK
V
u
u
E
E
E
1
}
E
u
E
E
P
u
u
u
W
E
P
V
u
u
E
-
1
}
E
u
E
E
p
\
PP
}
WV
R
tq
j
j
E
Pj
j
j
Wj
E
P
V
u
t
;
WW
u
u
u
u
P
u
+
yr
k
E
t
P
t
X
t
VVj
e
[
^
_
]
V
U
WVS
u
eI
E
F
E
E
E
u
1
nPPj
jJ
E
P
E
Pj
u
tHPP
PW
u2PP
u
u
u
u
WV
x
P
u
u
V
2
y
E
t
P
t
W
}
t
u
e
[
^
_
]
U
WVS
(
E
uH
p
Y
^
j
P
Z
u
E
tqPP
u
u
V
4
4
E
U
h
u
u
RW
u
P
u
0
x
u
u
W
u
W
?
E
e
[
^
_
]
U
WVS
G
u
u
V
&
4
^
4
n
u
WP
u
V
e
[
^
_
]
U
VS
\
G
U
u
B
B
B
E
E
8
[
^
]
U
VS
-
F
U
u
B
B
B
E
[
^
]
U
S
F
M
u
E
H
]
U
WVS
}
eF
G
p
w
u
G
W
N
<
e
[
^
_
]
U
V
u
S
R
F
V
\
XZ
u
V
A
e
[
^
]
U
S
!
E
E
j
P
u
]
U
S
E
u
|
P
Y
]
U
W
VS
E
E
}
uD
j
o
u
t
V
P
u
u
V
4
P
e
[
^
_
]
U
V
t
P
QVR
u
U
W
V
E
t
Q
VWR
U
B
t
e
^
_
]
U
t
R
P
U
t
R
P
U
W
V
t
R
P
7
t
R
P
e
^
_
]
U
V
t
R
P
u
U
W
V
0
M
#
E
E
t
R
P
e
^
_
]
U
V
M
u
#
E
E
t
R
P
u
U
V
E
U
M
i
#
E
E
t
R
P
u
U
V
M
#
E
E
t
R
P
u
U
V
E
U
M
#
E
E
t
R
P
u
U
W
V
E
t
P
E
PVQ
W
t
M
#
E
E
t
R
P
e
^
_
]
U
W
V
t0P
U
RQV
x
E
t
R
P
e
^
_
]
E
U
W
V
WR
v
P
Q
x
V
t
e
^
_
]
U
WVS
f
3B
}
E
P
U
t
u
u
u
R
P
e
[
^
_
]
U
W
V
PQR
w
x
W
t
e
^
_
]
U
WVS
A
}
E
P
h
U
t
u
u
u
R
P
e
[
^
_
]
U
W
V
QVR
p
x
W
t
e
^
_
]
U
WVS
>
A
}
E
P
U
t
u
u
u
u
R
P
e
[
^
_
]
U
W
V
QR
p
p
x
V
t
e
^
_
]
U
WVS
o
}
E
P
8
U
t
u
u
u
u
R
P
K
e
[
^
_
]
U
W
V
QR
p
p
x
V
t
e
^
_
]
U
WVS
?
}
E
M
P
U
t
u
u
u
R
P
e
[
^
_
]
U
W
V
PQR
7
x
W
t
e
^
_
]
U
V
QR
0
\
x
u
U
WVS
N
?
}
E
P
U
t
u
u
u
R
P
e
[
^
_
]
U
W
V
PQR
7
x
W
t
e
^
_
]
U
V
QR
0
\
x
u
U
W
V
2
t8
;
u
A
;
F
u
A
;
F
u
A
;
F
u
r
V
P
E
01
E
e
^
_
]
U
V
U
S
M
+
=
r
B
J
D
B
t
A0
t
0
[
^
]
U
V
u
S
=
D
F
F
t
t
F
0
t
[
^
]
U
V
u
S
s
=
D
F
F
t
t
F
0
t
[
^
]
U
E
P
T
t
P
u
u
u
U1
]
U
E
M
U
(
t
RQ
U
E
U
t
QQR
u
1
U
S
E
<
j
P
u
]
1
U
E
1
]
U
E
P4
E
1
]
U
E
M
P
t
R0
t
H
t
Q0
t
]
1
U
E
P
E
1
]
2
<
U
E
U
P
U
P
U
P
U
P
U
P
]
;
U
E
U
P
U
P
U
P
U
P
U
P
]
U
U
t
]
U
WVS
~
K
;
u
j
4
V
U
V
U
V
U
~
N
x
H
U
P
U
P
U
P
U
R
e
1
[
^
_
]
U1
U
W
E
P
E
u
E
E
R
E
E
E
E
E
A
}
U
WVS
:
w
W
%
E
p
U
z
u
z
t
B
B
t
R
e
[
^
_
]
U
S
Z
'
:
U
R
{
]
U
S
.
9
U
R
O
]
U
W
VS
9
}
t
e
[
^
_
]
j
D
F
F
F
u
u
V
t
V
4
U
VS
N9
E
P
|
Pj
[
x
E
VV
u
P
R
U
x
E
e
[
^
]
R
P
U
WVS
8
}
t0
j
E
x
U
~
E
p
1
e
[
^
_
]
U
S
8
M
u
E
|
]
U
S
g8
M
u
E
]
U
S
E
h
58
P
]
U
S
E
D
8
P
~
]
U
E
j
P
U
%
U
WVS
U
7
u
B
P
tC
1
Q
t
M
WW
A
p
R
1
e
[
^
_
]
1
U
V
u
S
Q7
F
P
u
!
F
t
V
4
1
e
[
^
]
U
V
U
S
M
3
7
r
B
J
D
B
t
A0
t
0
[
^
]
U
WVS
U
6
u
B
tB
1
Q
t
M
PP
A
0R
1
e
[
^
_
]
1
U
WVS
E
M6
E
p
E
~
tY
U
E
}
E
L
E
U
U
M
t
P
u
u
u
v
6
V
RQ
P
E
}
xJ
F
t
V
u
u
u
u
E
x
E
8
E
U
;
P
i
E
e
[
^
_
]
U
WV1
S
E
s5
x
t
R
E
E
E
E
U
L
E
E
E
u
E
x
E
/
E
W
u
w
7RP
Q
x
{
E
E
8
U
E
;
B
sG
t
G4
t
E
E
E
RRWP
P
x5
u
PP
u
u
B
1
E
e
[
^
_
]
E
U
WV
}
}
E
w
1
}
8A
;
M
tl
}
V
F
;
u
B
;
G
u
B
;
G
u
B
;
G
u
}
E
{
RRVP
x
E
Q
u
u
P
e
^
_
]
T
QQ
u
W
_
U
W1
VS
E
}
3
p
d
F
t
V
u
u
u
E
E
E
L
U
E
E
E
E
M
t
P
u
V
RQ
P
E
E
8G
:
E
;
x
r
e
1
[
^
_
]
U
V
u
S
"
2
F
P
u
)
F
t
V
(
4
n
1
e
[
^
]
D
D
D
D
D
D
D
D
Z
D
|
D
D
j
U
U
E
M
V
4B
f
f9
u
9
r
1
^
]
U
VS
.
1
E
j
P
u
j
E
P
u
1
9
t
e
[
^
]
PV
u
u
U
1
U
WVS
1
E
j
P
u
4
j
E
P
u
!
9
v
P
u
u
U
t
e
[
^
_
]
9
r
U
S
i
61
E
j
P
u
]
E
U
S
A
1
E
j
P
u
E
]
U
WVS
u
0
}
j
V
u
y
t
e
[
^
_
]
U
S
0
E
P
u
u
?
1
]
}
U
S
E
s0
Pj
u
]
E
U
S
E
~
K0
P
u
u
E
]
U
WVS
u
R
0
}
V
u
u
t
e
[
^
_
]
U
S
/
E
P
u
u
1
]
}
U
S
E
/
Pj
u
]
E
U
S
E
/
P
u
u
_
E
]
U
WVS
u
Y
/
}
V
u
u
0
t
e
[
^
_
]
U
WVS
}
L
/
E
u
j
P
u
9
v
29
v
)
U
j
VR
u
7
e
[
^
_
]
U
VS
u
.
E
j
P
u
X
9
v
)
U
j
PR
u
e
[
^
]
U
VS
y
.
E
j
P
u
j
E
P
u
1
9
t
e
[
^
]
PV
u
u
U
1
U
WVS
M
.
E
j
P
u
R
j
E
P
u
?
9
v
P
u
u
U
t
e
[
^
_
]
9
r
U
S
-
E
j
P
u
]
E
U
S
-
E
j
P
u
E
]
U
WVS
u
]
-
}
j
V
u
t
e
[
^
_
]
U
V
u
E
P
E
P
u
U
E
E
f
;
0t
9
s
u
)
U
WV
u
E
}
P
E
P
u
b
9
v
e
^
_
]
U
M
r
f
;
8t
9
r
)
U
WV
E
P
E
P
u
j
E
P
u
9
s
e
^
_
]
}
x4
)
9u
w
-
E
E
E
u
PW
u
V
U
t
;
u
s
?
)
E
+
E
U
WV
E
P
E
P
u
9u
v
e
^
_
]
Rj
E
P
u
e
+
u
9
w
u
?
)
E
u
PW
u
V
U
t
;
u
v
+
E
U
VS
u
~
+
E
j
P
u
9
v
)
E
j
RP
u
e
[
^
]
U
VS
k
8
+
E
t
t
t
-
u
u
Rj
V
E
Vj
j
u
e
[
^
]
U
WS
*
E
j
P
u
a
}
1
1
I9
t
e
[
_
]
QR
u
u
U
U
WVS
n
*
E
j
P
u
}
1
y
9
v
P
u
u
U
t
e
[
^
_
]
9
r
U
WVS
<
*
}
~
E
u
\
E
P
E
P
E
P
u
i
}
1
q
9
s
e
[
^
_
]
}
x4
)
9U
w
-
E
E
E
}
PV
u
W
U
u
;
}
s
6
)
E
+
E
U
WVS
]
)
}
~
E
u
\
E
P
E
P
E
P
u
9U
v
e
[
^
_
]
}
1
+
U
q
9
w
}
6
)
E
}
PV
u
W
U
u
;
}
v
+
E
U1
WVS
}
(
E
j
P
u
y
8P
E
P
E
P
u
E
t
}
p
E
f
G
f
E
U
G
;
U
r
e
[
^
_
]
U
S
s
(
u
u
u
x
]
U
VS
M
(
E
t
t
tA
u
u
Rj
V
E
PV
u
V
Vj
j
u
V
e
[
^
]
U
W
}
V
u
P
t
U
:
u
B
U
O
u
1
e
^
_
]
U
V
u
E
P
E
P
u
(
>
t5
P
t
"
U
:
u
B
F
E
E
;
E
r
1
>
1
u
U
WVS
}
&
E
j
P
u
%
<
1
9
t
e
[
^
_
]
PVW
u
U
1
U
WVS
&
E
j
P
u
X
u
[
9
v
P
u
u
U
t
e
[
^
_
]
9
r
U
VS
u
E
f
3
&
P
E
P
u
0
>
t
=
P
t
*
M
:
u
A
F
E
E
;
E
r
1
>
1
e
[
^
]
U
W
M
V
u
S
%
}
8
u
AF9
r
1
[
^
_
]
D
U
WVS
w
%
u
}
5
P
t
-
M
8
u
A
M
O
u
1
e
[
^
_
]
U
VS
u
?
%
E
j
P
u
D
9
v
)
E
j
RP
u
F
e
[
^
]
U
WVS
}
E
u
j
P
u
9
v
29
v
)
E
j
VP
u
e
[
^
_
]
U
WVS
}
a
E
u
j
P
u
9
v
29
v
)
E
j
VP
u
e
[
^
_
]
U
WVS
}
6
E
u
j
P
u
9
v
29
v
)
U
j
VR
u
!
e
[
^
_
]
U
VS
u
#
E
j
P
u
B
9
v
)
U
j
PR
u
e
[
^
]
U
WVS
e
#
u
(
V
Vj
u
4
4
o
e
[
^
_
]
U
WVS
M
#
}
u
}
u
e
[
^
_
]
E
VP
E
P
u
m
E
E
E
u
;
u
r
M
9
t
(
A
u
}
t
j
j
u
+
}
W
u
E
F
E
E
W1
P
E
P
u
E
E
u
;
u
s
M
9
t
)
A
u
?
j
j
Wj
u
g
%
F
G
E
U
WVS
u
E
E
"
P
1
IQ
u
U
u
f
Ff
B
u
e
[
^
_
]
U
WVS
E
!
t
tr
E
W
1
e
[
^
_
]
PP
u
u
E
V
j
E
PV
"
E
PW
u
b
4
1
U
H
%
E
U
WVS
E
Z
'
!
Pj
u
u
F
E
P
t5
;
}
r
+
P
t
;
}
r
f
E
f
E
f
;
}
s
f
f
E
P
t
;
u
v
f
~
t
f
+
u
P
E
P
V
u
b
e
[
^
_
]
U
WVS
4
}
W
u
WV
E
P
E
PV
E
j
j
PW
U
t
>
u
;
u
s
"
M
f
f
;
t
A
u
f
f
E
+
U
P
E
P
RW
E
P
e
[
^
_
]
U
WVS
4
u
u
E
}
P
f
t
#
tb
W
1
E
P
e
[
^
_
]
Pj
E
U
PR
E
E
PV
u
F
H
H
%
u
U
VS
E
M
Pj
u
u
E
U
9
r
e
[
^
]
U
VS
E
Pj
u
g
u
E
U
9
r
e
[
^
]
U
WVS
4
u
u
V
j
E
PV
E
Pj
u
}
U
t5
u
9
s
M
:
t
A
u
B
E
+
U
P
E
PR
u
E
P
:
e
[
^
_
]
U
WVS
E
j
P
u
|
E
PV
u
}
e
E
E
E
E
9
r
e
[
^
_
]
U
WVS
~
E
j
P
u
E
PV
u
}
E
E
E
E
9
r
e
[
^
_
]
U
S
E
J
j
E
E
P
u
U
M
:
t
H9
s
]
)
U
WVS
E
}
j
E
E
P
u
]
M
9
4
v
e
[
^
_
]
9
U
:
t
9
r
)
U
W1
VS
0
E
g
j
E
E
P
u
U
E
E
J9
t7
)
PW
u
E
E
P
j
u
u
Z
u
F
t9
;
u
t
'
F
;
E
t
E
QWP
u
y
u
e
[
^
_
]
U
P
+
E
P
u
R
E
1
U
WVS
}
E
j
P
u
5
M
u
e
[
^
_
]
9
w
4
)
PW
u
V
U
t
N
;
u
s
+
U
U1
W
U
u
IQR
u
r
}
U
WVS
?
E
j
P
u
j
E
E
E
P
u
9
s
e
[
^
_
]
}
x
.
)
9E
w
%
E
E
PW
u
V
U
t
N
;
u
s
E
)
+
E
U
WVS
x
E
j
P
u
}
u
u
e
[
^
_
]
9E
w
<
+
}
P
u
u
V
U
t
F9
v
+
U
U1
W
U
u
IQR
u
p
}
U
WVS
E
j
P
u
z
}
9E
v
e
[
^
_
]
Pj
E
P
u
Q
E
+
E
9E
w
u
+
}
u
P
u
u
V
U
t
F9
v
+
U
U
WVS
T
}
uj
}
u
e
[
^
_
]
Pj
E
P
u
E
E
E
N
E
)
H
;
u
r
U
:
t
#
B
u
t
)
j
j
PW
u
N
R1
j
E
P
u
y
u
E
9
s
U
:
t
)
B
u
^
j
j
Wj
u
P
D
G
E
U
V
u
S
w
V
ZY
u
V
e
[
^
]
U
WV
E
}
kE
4
kE
E
t
PPWV
;
u
u
e
^
_
]
U
W
}
VPj
E
PW
1
t
&
0
u
u
VW
k
U
0
e
^
_
]
U
WVS
E
kE
4
kE
<
V
9
u
e
[
^
_
]
U
W
}
V
u
PVW
u
j
VW
u
e
^
_
]
U
V
u
S
b
/
V
l
Vj
u
^
e
[
^
]
U
WVS
0
(
}
u
W
j
u
u
V
6
Wj
V
4
e
[
^
_
]
U
S
E
j
P
u
u
u
u
u
]
U
V
u
S
q
V
>
ZY
u
V
S
e
[
^
]
U
V
u
E
:
M
t
B
M
u
Z
^
]
u
U
U
f
8
u
]
)
U
M
V
u
)
u
f
f
u
1
f
9
^
]
U
U
]
8
U
U
]
8
U1
f
}
]
U
E
f
w
f
f
u
]
]
1
U
E
|
8
u
]
]
1
U
E
U
8
x
9
r
]
]
1
U
U
]
B
f
af
U
E
f
t
f
t
f
f
]
U
E
]
0f
U
S
E
P
u
E
0
'
]
U1
WVS
}
k
Q
q
t
QV
u
P
p
7
e
[
^
_
]
U
WVS
E
T
!
<
G
P
;
t
PW
u
V
'
f
>
e
[
^
_
]
U
WV1
U
t
?
U
:
M
t
:
B
M
u
>
t
;
U
:
t
%
B
u
u
M
Z
^
_
]
u
U
E
01
U
U
f
8
u
)
QQ
PR
U
S
v
C
E
P
1
x
U
]
U
WVS
F
}
W
-
t
PW
u
V
e
[
^
_
]
U
WVS
}
E
O
P
N
x
E
RR
u
P
R
e
[
^
_
]
U
E
]
c
U
E
]
U
WVS
E
n
;
U
y
y
9
t
e
[
^
_
]
E
P
z
W
/
1
t
U
PW
2V
U
F
%
F
E
0
U
S
M
9
t
z
y
A
9
t
R
]
U
WVS
}
q
9
tE
z
xG
B
2
%
9
s1
z
y
G
E
H
9
s
]
u
%
R
e
[
^
_
]
G
9
u
QQ
M
PR
t
%
B
w
W
u
u
QV
PR
^
7
.
E
U
WVS
}
u
;
}
t
!
E
E
)
E
:
t
:
+
M
)
u
e
[
^
_
]
E
T
P
P
u
P
R
J
RRVP
U
WVS
E
u
M
}
Q
9
U
v
E
U
v
1
e
[
^
_
]
=
w
9
t
[
E
u
9
s
E
y
y
E
9
t
|
E
VV
PQ
t
e
F
%
E
F
U
2
G
P
n
%
B
b
E
E
P
O
-
E
:
G
WPRV
.
d
U
W
}
V
u
0P
u
VW
1
%
9
r
u
u
j
u
W
e
^
_
]
U
WVS
}
u
u
W
9
u
1
e
[
^
_
]
PP
u
V
t
z
x
)
y
y
9
t4
J
Q
x
9
t
Q
F
F
G
G
U
S
M
9
t
z
y
A
9
t
R
;
]
U
VS
\
t
\
&
u
[
^
]
U
S
[
p
Y
[
Weave
User
PrivKey
mozilla
.
org
/
psm
;
1
FC0F
^
1
A
y
WeaveCryptoModule
Weave
crypto
module
labs
.
mozilla
.
com
/
Weave
/
Crypto
;
1
e
H
C
2
sqS
N
_
o
F
;
HeDa
F
l
u
=
%
x
%
o
%
d
%
i
!
"
#
%
&
'
(
)
*
+
-
.
/
0123456789
:
;
<
=
>
?
abcdefghijklmnopqrstuvwxyz
[
\
]
^
_
abcdefghijklmnopqrstuvwxyz
{
|
}
~
!
"
#
%
&
'
(
)
*
+
-
.
/
0123456789
:
;
<
=
>
?
ABCDEFGHIJKLMNOPQRSTUVWXYZ
[
\
]
^
_
ABCDEFGHIJKLMNOPQRSTUVWXYZ
{
|
}
~
P
w
B
ZC
0B
C
D
L
L
Q
DP
FN
Q
4I
4L
L
FM
jG
G
RH
H
G
G
L
M
L
H
<
H
G
0R
:
R
XR
Q
R
NR
bR
DR
R
&
R
R
x
x
0x
x
%
1
<
K
U
c
s
"
(
w
o
o
o
o
o0
T
"
"
"
#
#
&
#
6
#
F
#
V
#
f
#
v
#
#
#
#
#
#
#
#
#
&
6
F
V
f
v
%
%
&
%
6
%
F
%
V
%
f
%
v
%
%
%
%
%
%
%
%
%
&
&
&
&
6
&
F
&
V
&
f
&
v
&
&
&
&
&
&
&
&
&
'
'
&
'
6
'
F
'
V
'
f
'
v
'
'
'
'
'
'
'
'
'
(
(
w
P
v
F
OF
w
>
GCC
:
(
Debian
4
.
3
.
3
-
8
)
4
.
3
.
3
GCC
:
(
Debian
4
.
3
.
3
-
10
)
4
.
3
.
3
GCC
:
(
Debian
4
.
3
.
3
-
10
)
4
.
3
.
3
GCC
:
(
Debian
4
.
3
.
3
-
10
)
4
.
3
.
3
GCC
:
(
GNU
)
4
.
1
.
2
20061011
(
Red
Hat
4
.
1
.
1
-
29
)
GCC
:
(
GNU
)
4
.
1
.
2
20061011
(
Red
Hat
4
.
1
.
1
-
29
)
GCC
:
(
GNU
)
4
.
1
.
2
20061011
(
Red
Hat
4
.
1
.
1
-
29
)
GCC
:
(
GNU
)
4
.
1
.
2
20061011
(
Red
Hat
4
.
1
.
1
-
29
)
GCC
:
(
GNU
)
4
.
1
.
2
20061011
(
Red
Hat
4
.
1
.
1
-
29
)
GCC
:
(
GNU
)
4
.
1
.
2
20061011
(
Red
Hat
4
.
1
.
1
-
29
)
GCC
:
(
GNU
)
4
.
1
.
2
20061011
(
Red
Hat
4
.
1
.
1
-
29
)
GCC
:
(
GNU
)
4
.
1
.
2
20061011
(
Red
Hat
4
.
1
.
1
-
29
)
GCC
:
(
Debian
4
.
3
.
3
-
10
)
4
.
3
.
3
GCC
:
(
Debian
4
.
3
.
3
-
8
)
4
.
3
.
3
"
"
(
w
"
w
/
build
/
buildd
-
eglibc_2
.
9
-
12
-
i386
-
BXa5lr
/
eglibc
-
2
.
9
/
build
-
tree
/
i386
-
libc
/
csu
/
crti
.
S
/
build
/
buildd
-
eglibc_2
.
9
-
12
-
i386
-
BXa5lr
/
eglibc
-
2
.
9
/
csu
GNU
AS
2
.
19
.
1
g
/
tmp
/
ccSs4Lsz
.
s
/
build
/
buildd
-
eglibc_2
.
9
-
12
-
i386
-
BXa5lr
/
eglibc
-
2
.
9
/
csu
GNU
AS
2
.
19
.
1
U
%
U
%
/
build
/
buildd
-
eglibc_2
.
9
-
12
-
i386
-
BXa5lr
/
eglibc
-
2
.
9
/
build
-
tree
/
i386
-
libc
/
csu
.
.
/
sysdeps
/
generic
crti
.
S
initfini
.
c
"
!
/
!
=
Z
!
gg
/
/
(
w
!
/
!
=
Z
!
P
&
/
tmp
ccSs4Lsz
.
s
"
!
!
!
w
!
!
!
"
"
(
w
;
w
"
"
w
Dw
.
symtab
.
strtab
.
shstrtab
.
gnu
.
hash
.
dynsym
.
dynstr
.
gnu
.
version
.
gnu
.
version_r
.
rel
.
dyn
.
rel
.
plt
.
init
.
text
.
fini
.
rodata
.
eh_frame
.
ctors
.
dtors
.
jcr
.
data
.
rel
.
ro
.
dynamic
.
got
.
got
.
plt
.
data
.
bss
.
comment
.
debug_aranges
.
debug_info
.
debug_abbrev
.
debug_line
.
debug_ranges
p
o
l
%
-
5
o
B
o
Q
Z
c
"
"
0
^
"
"
i
(
(
O
o
(
w
(
w
u
w
w
}
z
z
4
T
T
8
<
"
h
P
P
0
/
"
"
(
(
w
w
z
T
(
5
(
K
Z
D
h
(
t
z
v
>
v
P
8
m
(
#
3
"
_
f
L
]
E
d
r
0B
6
vt
4
XR
)
n
#
9
?
P
U
J
H
*
D
e
zU
Z
#
?
p
t
R
j
y
<
d
]
Z
Q
V
x
zb
U
<
V
*
Y
Q
vW
F
E
J
a
S
2
T
*
.
<
r
E
i
m
_
L
J
?
l
Q
L
"
T
(
j
Xq
.
H
N
bR
~
E
_
0
XE
&
\
W
U
w
H
G
X
x
jo
"
(
:
P
g
a
m
x
u
L
+
hm
4
2
]
F
G
-
v
F
&
?
<
e
M
tT
?
M
o
:
x
g
No
y
n
T
2
q
[
bS
(
X
\
(
(
Z
g
2
DP
{
R
V
]
<
[
"
s
"
F
B
T
rp
J
g
M
B
o
4
D
5
LK
d
O
bY
l
l
0R
4L
+
&
n
1
lc
tJ
+
4
&
E
2
i
NR
4m
3
H
~
g
I
m
<
'
G
E
A
w
r
|
a
R
h
*
o
H
N
o
&
E
2
T
L
#
r
g
e
v
?
X
r
S
(
Z
L
=
o
+
L
+
R
]
8F
a
F
*
h
A
I
j
k
&
R
A
9
v
f
e
G
-
ZC
3
Xn
-
0x
8
Rl
H
|
V
h
>
ze
M
0q
%
JT
)
K
W
W
jG
)
L
q
s
~
8
6W
?
)
o
!
>
F
]
Q
D
_
m
M
RH
4
#
q
>
;
S
>
b
NI
^
M
[
z
;
Xr
P
J
n
2
W
(
L
#
u
R
FM
N
h
i
D
_
]
x
Y
Y
b
NA
=
J
+
j
)
>
A
Z
R
U
)
:
R
]
W
1
r
?
H
B
3
x
lR
0
^
^
v
n
#
f
4I
4
4a
G
T
x
z
FN
C
5
y
Y
L
L
DR
{
O
&
Bk
C
e
B
_
:
K
8
(
r
l
G
fB
_
:
U
i
)
o
1
#
H
f
<
H
d
4
(
"
p
O
p
?
!
R
8
!
T
A
!
\
\
!
G
3
!
!
I
B
!
9
Q
"
\
)
t
"
"
5
"
>
+
"
L
!
"
#
+
#
7
H
p
#
#
#
#
#
#
4
-
A
K
(
w
Q
j
=
a
)
l
)
%
G
%
+
%
<
%
(
)
%
%
(
&
w
!
=
&
R
&
f
&
&
J
)
&
<
T
&
/
'
1
'
C
'
Z
'
q
'
8
L
!
'
'
'
'
R7
'
<
9
?
(
Q
(
c
(
}
(
(
!
(
(
(
(
(
w
!
)
7
)
I
)
)
)
)
)
)
p1
&
*
9
*
.
>
I
T
*
>
=
a
i
*
^
0
}
*
x
-
*
7
B
+
0
U
+
a
+
z
+
+
.
;
+
+
?
[
t
>
%
"
t
*
-
*
-
?
-
a
-
{
-
-
-
P
-
-
>
&
-
-
x
>
1
"
.
.
(
/
.
F
.
V
.
t
.
.
.
.
.
.
/
(
/
6
t
Y
/
"
u
/
/
"
/
:
)
/
/
crtstuff
.
c
__CTOR_LIST__
__DTOR_LIST__
__JCR_LIST__
__do_global_dtors_aux
completed
.
5723
dtor_idx
.
5725
frame_dummy
__CTOR_END__
__FRAME_END__
__JCR_END__
__do_global_ctors_aux
WeaveCrypto
.
cpp
_ZZN11WeaveCrypto14QueryInterfaceERK4nsIDPPvE5table
WeaveCryptoModule
.
cpp
_ZL11kModuleInfo
_ZL22WeaveCryptoConstructorP11nsISupportsRK4nsIDPPv
_ZL10components
nsCOMPtr
.
cpp
nsComponentManagerUtils
.
cpp
nsISupportsImpl
.
cpp
nsGenericFactory
.
cpp
_ZZN15nsGenericModule14QueryInterfaceERK4nsIDPPvE5table
_ZZN16nsGenericFactory14QueryInterfaceERK4nsIDPPvE5table
nsStringAPI
.
cpp
_Z13ns_strnimatchPKtPKcj
_Z12ns_strnmatchPKtPKcj
nsCRTGlue
.
cpp
nsMemory
.
cpp
nsTArray
.
cpp
_ZTV28nsGetClassObjectByContractID
_ZNK27nsCreateInstanceFromFactoryclERK4nsIDPPv
_ZN13nsTArray_base14EnsureCapacityEjj
_ZThn4_N16nsGenericFactory7ReleaseEv
_Z10NS_IsUpperc
_ZN13nsCOMPtr_baseD2Ev
_ZN30nsDependentCSubstring_externalC2ERK10nsACStringj
_ZN16nsGenericFactory25GetImplementationLanguageEPj
_Z18CallCreateInstanceRK4nsIDP11nsISupportsS1_PPv
_ZN30nsDependentCSubstring_externalC1ERK10nsACStringjj
_ZTV21nsGetClassObjectByCID
_Z9NS_strtokPKcPPc
_ZNK10nsACString4FindERKS_jPFiPKcS3_jE
_ZN9nsAString10StripCharsEPKc
_ZNK9nsAString7CompareEPKtPFiS1_S1_jE
_ZNK9nsAString5RFindEPKcii
_ZN15nsGenericModule7ReleaseEv
_ZN9nsIModule11COMTypeInfoIiE4kIIDE
_ZN9nsAString13AssignLiteralEPKc
_ZNK9nsAString10EndReadingEv
_ZN15nsGenericModule14UnregisterSelfEP19nsIComponentManagerP7nsIFilePKc
_ZNK9nsAString9RFindCharEt
_ZN16nsGenericFactoryD2Ev
_ZN15nsGenericModule8ShutdownEv
_ZN10nsACString9SetLengthEj
_ZN9nsAString10EndWritingEv
_ZN13nsTArray_baseC1Ev
_ZNK10nsACString5RFindERKS_iPFiPKcS3_jE
_ZN29nsDependentSubstring_externalC2ERK9nsAStringj
_ZN30nsDependentCSubstring_externalC1ERK10nsACStringj
_ZN13nsCOMPtr_baseD1Ev
_ZN8nsTArrayI18nsCString_externalE14AppendElementsI30nsDependentCSubstring_externalEEPS0_PKT_j
_ZN10nsACString10EndWritingEv
_ZN8nsMemory22GetGlobalMemoryServiceEv
_ZN15nsGenericModuleC1EPKcjPK21nsModuleComponentInfoPFjP9nsIModuleEPFvS6_E
_ZThn4_N16nsGenericFactory19GetClassDescriptionEPPc
_Z14CallGetServiceRK4nsIDS1_PPv
_ZNK24nsGetServiceByContractIDclERK4nsIDPPv
_ZNK9nsAString8FindCharEtj
_ZTV21nsCreateInstanceByCID
_ZN16nsGenericFactory11LockFactoryEi
_ZNK9nsAString4FindERKS_jPFiPKtS3_jE
_ZN12nsIClassInfo11COMTypeInfoIiE4kIIDE
_Z10NS_IsAsciiPKcj
_ZTV27nsCreateInstanceFromFactory
_GLOBAL_OFFSET_TABLE_
_ZNK10nsACString8FindCharEcj
_ZTV16nsGenericFactory
_ZN13nsTArray_base17SwapArrayElementsERS_j
_ZN15nsGenericModule14QueryInterfaceERK4nsIDPPv
_ZN30NS_ConvertUTF16toUTF8_externalC1ERK9nsAString
_ZN29nsDependentSubstring_externalC2ERK9nsAStringjj
_ZN16nsGenericFactory17GetClassIDNoAllocEP4nsID
_ZNK17nsGetServiceByCIDclERK4nsIDPPv
_ZNK25nsQueryInterfaceWithErrorclERK4nsIDPPv
_Z11ToLowerCaseR10nsACString
_ZN10nsACString12BeginWritingEPPcS1_j
_ZN16nsGenericFactory19GetClassDescriptionEPPc
_ZN17nsIGenericFactory11COMTypeInfoIiE4kIIDE
_Z10NS_IsAsciiPKc
_Z9NS_strlenPKt
_ZN9nsAString9SetLengthEj
_ZN8nsMemory12HeapMinimizeEi
_ZNK10nsACString10EndReadingEv
_ZN10nsACString17DefaultComparatorEPKcS1_j
_ZNK10nsACString7CompareEPKcPFiS1_S1_jE
_ZN15nsGenericModule14GetClassObjectEP19nsIComponentManagerRK4nsIDS4_PPv
_ZThn4_N16nsGenericFactory20GetHelperForLanguageEjPP11nsISupports
_ZNK9nsAString6EqualsERKS_PFiPKtS3_jE
_ZNK9nsAString4FindEPKcji
_ZN13nsTArray_base14ShrinkCapacityEj
_ZN16nsGenericFactoryC1EPK21nsModuleComponentInfo
_Z10NS_strndupPKtj
_ZN16nsGenericFactoryC2EPK21nsModuleComponentInfo
_Z10NS_IsAsciit
_ZN13nsCOMPtr_base18assign_with_AddRefEP11nsISupports
_ZNK21nsCreateInstanceByCIDclERK4nsIDPPv
_Z20NS_NewGenericFactoryPP17nsIGenericFactoryPK21nsModuleComponentInfo
_ZN10nsACString9AppendIntEii
_ZThn4_N16nsGenericFactory14QueryInterfaceERK4nsIDPPv
_ZN16nsGenericFactory14QueryInterfaceERK4nsIDPPv
_ZN17nsString_externalC1ERK9nsAString
_Z18CompressWhitespaceR9nsAString
_ZN15nsGenericModuleD1Ev
_ZNK33nsGetServiceByContractIDWithErrorclERK4nsIDPPv
_ZThn4_N16nsGenericFactory13GetContractIDEPPc
_ZN8nsTArrayI18nsCString_externalE16RemoveElementsAtEjj
_ZN13nsTArray_base9sEmptyHdrE
_ZNK10nsACString9RFindCharEc
_ZN9nsAString7ReplaceEjjRKS_
_ZN16nsGenericFactoryD1Ev
_ZN21nsIComponentRegistrar11COMTypeInfoIiE4kIIDE
_ZN9nsAString4TrimEPKcii
_ZNK10nsACString7CompareERKS_PFiPKcS3_jE
_Z10NS_IsAsciiPKt
_ZN15nsGenericModuleC2EPKcjPK21nsModuleComponentInfoPFjP9nsIModuleEPFvS6_E
_Z15NS_IsAsciiDigitt
_ZNK26nsGetServiceByCIDWithErrorclERK4nsIDPPv
_ZN15nsGenericModule6AddRefEv
_Z11ToLowerCaseRK10nsACStringRS_
_ZN13nsTArray_baseD1Ev
__dso_handle
_ZNK9nsAString5RFindERKS_iPFiPKtS3_jE
_ZN13nsTArray_baseC2Ev
_ZNK10nsACString12BeginReadingEv
_ZN30nsDependentCSubstring_externalC2ERK10nsACStringjj
_ZN13nsCOMPtr_base25assign_from_gs_contractidE24nsGetServiceByContractIDRK4nsID
_Z20NS_IsAsciiWhitespacet
__DTOR_END__
_ZN16nsGenericFactory10GetClassIDEPP4nsID
_ZNK10nsACString6EqualsERKS_PFiPKcS3_jE
_Z16NS_TableDrivenQIPvPK12QITableEntryRK4nsIDPS_
_Z11ParseStringRK10nsACStringcR8nsTArrayI18nsCString_externalE
_ZN13nsCOMPtr_base14assign_from_qiE16nsQueryInterfaceRK4nsID
_ZNK10nsACString4FindEPKcjPFiS1_S1_jE
_ZTV9nsIModule
_ZThn4_N16nsGenericFactory8GetFlagsEPj
_ZN13nsCOMPtr_base29assign_from_gs_cid_with_errorERK26nsGetServiceByCIDWithErrorRK4nsID
_Z11ToUpperCaseRK10nsACStringRS_
_ZN16nsGenericFactory20GetHelperForLanguageEjPP11nsISupports
_ZNK21nsGetClassObjectByCIDclERK4nsIDPPv
_Z10NS_strspnpPKcS0_
_ZN10nsIFactory11COMTypeInfoIiE4kIIDE
_ZN8nsTArrayI18nsCString_externalE11AssignRangeI30nsDependentCSubstring_externalEEvjjPKT_
_ZNK9nsAString7CompareERKS_PFiPKtS3_jE
__i686
.
get_pc_thunk
.
cx
_Z11ToUpperCaseR10nsACString
_Z9NS_strdupPKt
_ZN10nsACString12BeginWritingEj
_ZN15nsGenericModule14AddFactoryNodeEP17nsIGenericFactory
_ZN16nsGenericFactory14CreateInstanceEP11nsISupportsRK4nsIDPPv
_ZN16nsGenericFactory13GetContractIDEPPc
_ZN13nsTArray_base9ShiftDataEjjjj
_ZTV28nsCreateInstanceByContractID
_ZNK9nsAString12BeginReadingEPPKtS2_
_Z15NS_IsAsciiAlphat
_ZNK9nsAString13EqualsLiteralEPKc
_ZThn4_N16nsGenericFactory13GetInterfacesEPjPPP4nsID
_Z14CallGetServicePKcRK4nsIDPPv
_ZN31NS_ConvertASCIItoUTF16_externalC1EPKcj
_ZN16nsGenericFactory16SetComponentInfoEPK21nsModuleComponentInfo
_ZN8nsMemory5CloneEPKvj
_ZNK10nsACString12BeginReadingEPPKcS2_
_Z20NS_NewGenericModule2PK12nsModuleInfoPP9nsIModule
_Z22CaseInsensitiveComparePKcS0_j
_ZN9nsAString13AppendLiteralEPKc
_ZN13nsCOMPtr_base18assign_from_helperERK15nsCOMPtr_helperRK4nsID
_ZN13nsTArray_base29EnsureNotUsingAutoArrayBufferEj
_ZN16nsGenericFactory6CreateEP11nsISupportsRK4nsIDPPv
_Z9NS_strcmpPKtS0_
_ZNK9nsAString12BeginReadingEv
_ZN16nsGenericFactory6AddRefEv
_ZN13nsTArray_base13InsertSlotsAtEjjj
_ZN16nsGenericFactory7ReleaseEv
_ZNK10nsACString5RFindEPKciPFiS1_S1_jE
_ZN29nsDependentSubstring_externalC1ERK9nsAStringjj
_ZNK10nsACString6EqualsEPKcPFiS1_S1_jE
_ZNK10nsACString9ToIntegerEPjj
_ZN13nsCOMPtr_base18assign_from_gs_cidE17nsGetServiceByCIDRK4nsID
_ZN15nsGenericModuleD2Ev
_ZNK10nsACString4FindEPKcPFiS1_S1_jE
_ZN13nsCOMPtr_base25assign_from_qi_with_errorERK25nsQueryInterfaceWithErrorRK4nsID
_ZThn4_N16nsGenericFactory25GetImplementationLanguageEPj
_ZN9nsAString12BeginWritingEj
_ZThn4_N16nsGenericFactory6AddRefEv
_ZNK9nsAString6EqualsEPKtPFiS1_S1_jE
_ZN13nsTArray_baseD2Ev
_ZNK28nsGetClassObjectByContractIDclERK4nsIDPPv
_ZN9nsAString17DefaultComparatorEPKtS1_j
_ZNK9nsAString22LowerCaseEqualsLiteralEPKc
_Z10NS_IsLowerc
_ZN10nsACString10StripCharsEPKc
_ZN15nsGenericModule9CanUnloadEP19nsIComponentManagerPi
_Z15ToNewUTF8StringRK9nsAString
_ZN17nsLowerUpperUtils12kUpper2LowerE
_ZN15nsGenericModule12RegisterSelfEP19nsIComponentManagerP7nsIFilePKcS5_
_ZNK28nsCreateInstanceByContractIDclERK4nsIDPPv
_ZN17nsLowerUpperUtils12kLower2UpperE
_ZN29nsDependentSubstring_externalC1ERK9nsAStringj
_ZThn4_N16nsGenericFactory10GetClassIDEPP4nsID
_ZN15nsGenericModule10InitializeEP19nsIComponentManager
_ZN10nsACString4TrimEPKcii
_Z18CallCreateInstancePKcP11nsISupportsRK4nsIDPPv
_ZTV15nsGenericModule
_Z18CallGetClassObjectRK4nsIDS1_PPv
_ZTV10nsIFactory
_ZN13nsCOMPtr_base16begin_assignmentEv
_ZN8nsTArrayI18nsCString_externalE13DestructRangeEjj
_Z18CallGetClassObjectPKcRK4nsIDPPv
_ZN9nsAString12BeginWritingEPPtS1_j
_ZNK10nsACString5RFindEPKcPFiS1_S1_jE
printf_stderr
_ZN16nsGenericFactory16GetComponentInfoEPPK21nsModuleComponentInfo
_ZN16nsGenericFactory8GetFlagsEPj
_ZNK9nsAString9ToIntegerEPjj
_ZTV12nsIClassInfo
__i686
.
get_pc_thunk
.
bx
_Z9NS_strdupPKc
_ZNK16nsQueryInterfaceclERK4nsIDPPv
_ZThn4_N16nsGenericFactory17GetClassIDNoAllocEP4nsID
_DYNAMIC
_ZN9nsAString9AppendIntEii
_ZN16nsGenericFactory13GetInterfacesEPjPPP4nsID
_ZTV17nsIGenericFactory
_Z19NS_NewGenericModulePKcjP21nsModuleComponentInfoPFvP9nsIModuleEPS4_
_ZN13nsCOMPtr_base36assign_from_gs_contractid_with_errorERK33nsGetServiceByContractIDWithErrorRK4nsID
_ZN11WeaveCrypto14SetKeypairBitsEj
NS_StringSetDataRange
_ZN11WeaveCrypto17GenerateRandomKeyER10nsACString
_ZN11WeaveCrypto14QueryInterfaceERK4nsIDPPv
_ZTV12IWeaveCrypto
PK11_ExtractKeyValue
NSS_3
.
3
memcmp
GLIBC_2
.
0
_ZN11WeaveCrypto15EncodePublicKeyEP18SECKEYPublicKeyStrR10nsACString
NS_StringContainerInit2
PR_AtomicIncrement
NS_CStringSetData
PK11_CreateContextBySymKey
NSS_3
.
2
__gmon_start__
_ZN11WeaveCrypto16WrapSymmetricKeyERK10nsACStringS2_RS0_
_Jv_RegisterClasses
_ZdlPv
GLIBCXX_3
.
4
PR_Malloc
_fini
NS_StringContainerFinish
NS_StringGetMutableData
NS_StringCopy
_ZN11WeaveCryptoC2Ev
_ZN11WeaveCryptoD1Ev
PL_Base64Encode
NS_Alloc
NS_CStringCopy
NS_CStringContainerInit
_ZN11WeaveCrypto12DecodeBase64ERK10nsACStringPcPj
PK11_GetBlockSize
NSS_3
.
2
_ZN11WeaveCrypto16VerifyPassphraseERK10nsACStringS2_S2_S2_Pi
_ZN11WeaveCrypto7EncryptERK10nsACStringS2_S2_RS0_
_ZN11WeaveCrypto12GetAlgorithmEPj
PK11_SetPrivateKeyNickname
NSS_3
.
4
_ZN11WeaveCrypto6AddRefEv
_ZN11nsISupports11COMTypeInfoIiE4kIIDE
PK11_KeyGen
NSS_3
.
2
NS_GetMemoryManager
PK11_GetKeyData
NSS_3
.
3
_ZN11WeaveCrypto14GetKeypairBitsEPj
_ZN11WeaveCrypto12EncodeBase64ERK10nsACStringRS0_
_ZN11WeaveCrypto7DecryptERK10nsACStringS2_S2_RS0_
PK11_GenerateKeyPairWithFlags
NSS_3
.
10
.
2
NS_CStringToUTF16
NS_StringContainerInit
NS_GetComponentManager
_ZTV11WeaveCrypto
PR_sscanf
PK11_WrapPrivKey
NSS_3
.
3
SECKEY_DestroyPublicKey
NSS_3
.
2
_ZN11WeaveCrypto19GenerateRandomBytesEjR10nsACString
_ZN11WeaveCrypto16RewrapPrivateKeyERK10nsACStringS2_S2_S2_S2_RS0_
stderr
GLIBC_2
.
0
memcpy
GLIBC_2
.
0
NS_CStringContainerFinish
NS_StringGetData
_ZTV11nsISupports
PK11_ParamFromIV
NSS_3
.
2
PR_Free
strcpy
GLIBC_2
.
0
PK11_GetInternalKeySlot
NSS_3
.
2
_ZN12IWeaveCrypto11COMTypeInfoIiE4kIIDE
PK11_GetIVLength
NSS_3
.
3
NS_CStringGetData
NS_CStringSetDataRange
__cxa_pure_virtual
CXXABI_1
.
3
SECKEY_DecodeDERSubjectPublicKeyInfo
NSS_3
.
4
NS_CStringCloneData
SECKEY_ExtractPublicKey
NSS_3
.
3
_ZN11WeaveCrypto18UnwrapSymmetricKeyERK10nsACStringS2_S2_S2_S2_RS0_
_Znwj
GLIBCXX_3
.
4
_ZN11WeaveCrypto7ReleaseEv
_ZN11WeaveCryptoC1Ev
_ZN11WeaveCrypto12DecodeBase64ERK10nsACStringRS0_
_ZN11WeaveCrypto11CommonCryptEPKcjPcPjRK10nsACStringS6_m
_ZN11WeaveCrypto14WrapPrivateKeyEP19SECKEYPrivateKeyStrRK10nsACStringS4_S4_RS2_
_ZN11WeaveCrypto12EncodeBase64EPKcjR10nsACString
__bss_start
PK11_FreeSymKey
NSS_3
.
2
PK11_CipherOp
NSS_3
.
2
_ZN11WeaveCrypto15GenerateKeypairERK10nsACStringS2_S2_RS0_S3_
SECKEY_EncodeDERSubjectPublicKeyInfo
NSS_3
.
3
PK11_UnwrapPrivKey
NSS_3
.
3
PK11_CreatePBEV2AlgorithmID
NSS_3
.
12
PK11_PubWrapSymKey
NSS_3
.
2
NS_CStringGetMutableData
PR_AtomicDecrement
_ZNK10nsACString6LengthEv
_ZN11WeaveCrypto23DeriveKeyFromPassphraseERK10nsACStringS2_PP13PK11SymKeyStr
NS_Realloc
PK11_GetInternalSlot
NSS_3
.
2
memmove
GLIBC_2
.
0
NS_GetServiceManager
SECKEY_DestroyPrivateKey
NSS_3
.
2
PK11_DigestFinal
NSS_3
.
2
NS_UTF16ToCString
NS_CStringContainerInit2
_end
PK11_PubUnwrapSymKey
NSS_3
.
2
NSGetModule
NS_Free
_ZN18nsCString_externalC1ERK10nsACString
vfprintf
GLIBC_2
.
0
_ZN11WeaveCryptoD2Ev
PK11_FreeSlot
NSS_3
.
2
PL_Base64Decode
PK11_GetPadMechanism
NSS_3
.
4
PK11_ImportSymKey
NSS_3
.
3
SECKEY_DestroySubjectPublicKeyInfo
NSS_3
.
2
_edata
snprintf
GLIBC_2
.
0
SECITEM_FreeItem
NSS_3
.
2
PK11_PBEKeyGen
NSS_3
.
2
PK11_AlgtagToMechanism
NSS_3
.
2
_ZN11WeaveCrypto16GenerateRandomIVER10nsACString
__cxa_finalize
GLIBC_2
.
1
.
3
PK11_DestroyContext
NSS_3
.
2
_init
_ZN11WeaveCrypto12SetAlgorithmEj
PK11_GenerateRandom
NSS_3
.
2
SECOID_DestroyAlgorithmID
NSS_3
.
2
