ELF
(
)
4
4
(
|
|
H
H
Q
td
P
a
%
P
#
W
A
0
\
4
X
b
E
6
P
R
S
T
U
V
W
Y
Z
[
\
]
^
_
a
b
c
d
e
f
h
i
j
k
l
m
n
o
p
q
r
s
t
u
v
x
y
z
{
|
}
~
u
7
y
O
j
Whz
.
:
m
G
YT
W
3
%
qX
c5
C
]
Y
y
|
qEpCE
9
(
k
C
C
lz
z
_I
!
g
?
w
N
Q
Hc
-
g0
y
(
/
1P
!
LSM
0
IUU
Sf
!
-
~
4
d
2M
K
V
C
-
vT
<
t
Fi
-
O
s
#
VE
v1
I
A
|
y
A
L
8
p
+
B
d
f
)
w
*
u
V
h
_
+
X
0
f
L
8
o
w
b
Q
T
x
v
8
4
f
P
|
?
(
Y
0
5
Q
(
D
D
:
L
"
L
<
-
=
"
)
;
*
8
!
*
V
p
*
y
!
!
U
=
"
(
D
!
T
0
E
<
6
D
D
<
H
%
s
H
>
"
>
"
h
>
"
/
D
*
d
=
"
j
<
|
v
7
L
*
P
=
"
!
k
*
T
8
>
"
3
7
6
p
d
;
?
=
"
k
4
=
"
;
=
8
"
*
8
(
>
"
7
D
|
>
0
C
5
H
x
9
E
(
:
y
>
D
"
L
/
>
l
<
4
t
=
"
H1
4
!
=
"
p
!
>
"
__gmon_start__
_init
_fini
__cxa_finalize
_Jv_RegisterClasses
_ZN12nsAutoRefCntC1Ev
_ZN12nsAutoRefCntppEv
_ZN12nsAutoRefCntmmEv
_ZN12nsAutoRefCntaSEj
_ZN24nsGetServiceByContractIDC1EPKc
_ZN13nsCOMPtr_baseC2EP11nsISupports
_ZN11nsISupportsC2Ev
_ZTV11nsISupports
_ZN12IWeaveCryptoC2Ev
_ZTV12IWeaveCrypto
_ZN11WeaveCryptoD2Ev
_ZTV11WeaveCrypto
_ZN11WeaveCryptoD1Ev
_ZN11WeaveCrypto12GetAlgorithmEPj
_ZN11WeaveCrypto12SetAlgorithmEj
_ZN11WeaveCrypto14GetKeypairBitsEPj
_ZN11WeaveCrypto14SetKeypairBitsEj
_ZN18nsCString_externalC1Ev
NS_CStringContainerInit
NS_CStringCopy
_ZN10nsACString6AssignERKS_
_ZNK18nsCString_external3getEv
_ZNK10nsACString6LengthEv
NS_CStringGetData
_ZN18nsCString_externalD1Ev
NS_CStringContainerFinish
_ZN10nsACString6AssignEPKcj
NS_CStringSetData
_ZN11WeaveCrypto12DecodeBase64ERK10nsACStringPcPj
PL_Base64Decode
_ZN11WeaveCrypto23DeriveKeyFromPassphraseERK10nsACStringS2_PP13PK11SymKeyStr
memset
PK11_CreatePBEV2AlgorithmID
PK11_GetInternalSlot
PK11_PBEKeyGen
SECOID_DestroyAlgorithmID
PK11_FreeSlot
_ZN11WeaveCrypto11CommonCryptEPKcjPcPjRK10nsACStringS6_m
PK11_AlgtagToMechanism
PK11_GetPadMechanism
PK11_ParamFromIV
PK11_GetInternalKeySlot
PK11_ImportSymKey
PK11_CreateContextBySymKey
PK11_CipherOp
PK11_DigestFinal
PK11_FreeSymKey
SECITEM_FreeItem
PK11_DestroyContext
_ZN11WeaveCrypto7DecryptERK10nsACStringS2_S2_RS0_
PR_Malloc
PR_Free
_ZN11WeaveCrypto12DecodeBase64ERK10nsACStringRS0_
__aeabi_uidiv
_ZN11WeaveCrypto12EncodeBase64EPKcjR10nsACString
PL_Base64Encode
_ZN11WeaveCrypto18UnwrapSymmetricKeyERK10nsACStringS2_S2_S2_S2_RS0_
PK11_UnwrapPrivKey
PK11_PubUnwrapSymKey
PK11_ExtractKeyValue
PK11_GetKeyData
SECKEY_DestroyPrivateKey
_ZN11WeaveCrypto16WrapSymmetricKeyERK10nsACStringS2_RS0_
SECKEY_DecodeDERSubjectPublicKeyInfo
SECKEY_ExtractPublicKey
PK11_PubWrapSymKey
SECKEY_DestroySubjectPublicKeyInfo
SECKEY_DestroyPublicKey
_ZN11WeaveCrypto17GenerateRandomKeyER10nsACString
PK11_KeyGen
_ZN11WeaveCrypto16GenerateRandomIVER10nsACString
PK11_GetIVLength
PK11_GenerateRandom
_ZN11WeaveCrypto19GenerateRandomBytesEjR10nsACString
_ZN11WeaveCrypto15EncodePublicKeyEP18SECKEYPublicKeyStrR10nsACString
SECKEY_EncodeDERSubjectPublicKeyInfo
_ZN11WeaveCrypto14WrapPrivateKeyEP19SECKEYPrivateKeyStrRK10nsACStringS4_S4_RS2_
PK11_WrapPrivKey
_ZN11WeaveCrypto15GenerateKeypairERK10nsACStringS2_S2_RS0_S3_
PK11_GenerateKeyPair
PK11_SetPrivateKeyNickname
_ZN11WeaveCrypto7EncryptERK10nsACStringS2_S2_RS0_
PK11_GetBlockSize
_ZN11WeaveCrypto12EncodeBase64ERK10nsACStringRS0_
_ZN8nsCOMPtrI11nsISupportsEC1E24nsGetServiceByContractID
_ZN8nsCOMPtrI11nsISupportsED1Ev
_ZN11WeaveCryptoC1Ev
_ZN11WeaveCryptoC2Ev
_ZN11WeaveCrypto14QueryInterfaceERK4nsIDPPv
_ZN11WeaveCrypto6AddRefEv
_ZN11WeaveCrypto7ReleaseEv
_ZdlPv
__cxa_pure_virtual
_ZN12IWeaveCrypto11COMTypeInfoIiE4kIIDE
NSGetModule
_Znwj
NS_GetComponentManager
NS_GetServiceManager
_ZTV16nsGenericFactory
_ZTV15nsGenericModule
PR_AtomicIncrement
strlen
NS_Alloc
strcpy
PR_AtomicDecrement
_ZTV9nsIModule
_ZTV17nsIGenericFactory
_ZTV10nsIFactory
_ZTV12nsIClassInfo
NS_CStringGetMutableData
NS_StringGetMutableData
NS_UTF16ToCString
NS_CStringContainerInit2
NS_StringGetData
NS_StringContainerInit2
snprintf
NS_CStringSetDataRange
memcmp
NS_StringContainerInit
NS_CStringToUTF16
NS_StringSetDataRange
NS_StringContainerFinish
NS_StringCopy
NS_CStringCloneData
PR_sscanf
vfprintf
stderr
memcpy
NS_GetMemoryManager
libxpcom
.
so
libnspr4
.
so
libsmime3
.
so
libssl3
.
so
libnss3
.
so
libnssutil3
.
so
libplds4
.
so
libplc4
.
so
libstdc
+
+
.
so
.
6
libm
.
so
.
6
libgcc_s
.
so
.
1
libpthread
.
so
.
0
libc
.
so
.
6
__exidx_start
__exidx_end
__data_start
_edata
__bss_start
__bss_start__
__bss_end__
__end__
WeaveCrypto
.
so
GCC_3
.
5
CXXABI_1
.
3
GLIBCXX_3
.
4
GLIBC_2
.
4
NSS_3
.
12
NSS_3
.
4
NSS_3
.
2
NSS_3
.
3
U
&
y
<
0
k
D
t
)
O
ii
[
_
rd
e
D
&
n
B
&
v
C
&
~
0
(
0
4
8
<
P
T
X
\
d
h
l
p
t
x
|
0
4
8
<
D
H
L
P
T
X
\
d
h
x
|
D
H
L
P
T
X
h
l
p
t
x
|
W
k
a
q
{
U
S
u
t
s
Z
^
L
|
}
(
0
4
8
<
D
H
L
P
T
V
X
\
d
h
l
p
n
t
x
x
|
f
r
!
"
#
%
&
'
(
)
*
+
-
.
/
0
v
P
m
1
Y
2
3
4
5
o
6
7
(
j
8
0
d
4
\
8
9
<
:
;
D
<
H
=
L
>
P
?
T
Q
X
w
\
A
B
d
C
h
D
l
z
p
E
t
F
x
G
|
H
I
J
K
h
L
M
N
O
-
1
-
4_
4
|
t
l
d
\
T
L
D
<
4
|
t
l
d
\
T
L
D
<
4
|
t
l
d
\
T
L
D
<
4
0
0
Q
/
pZ
p
-
8
8P
0
S
p
(
0
R
0
0
0
p
HZ
0
00
-
R
0
0
S
3
/
Y
0
0
H
-
Y
0
0
H
-
Y
H
-
0
0
H
-
H
-
0
0
H
-
I
-
(
K
M
p
C
P
-
=
P
(
9
0
#
Q
1
0P
=
S
PE
(
0P
=
S
0
PE
S
:
P
A
0
P
(
K
W
K
W
O
-
M
4
M
4
K
p
K
P
t
Y
u
jK
F
(
F
<
(
0K
(
8
[
P
&
L
K
B
(
0
H
D
P
PP
0
(
0
R
4
K
K
&
O
-
jK
M
K
M
F
(
F
P
T
X0
(
0K
(
p
P
i
ZK
PE
(
PE
0K
P
_
K
L
K
(
0
80
<
0
D0
HP
p
4
/
PP
1
8
pP
/
0
P
'
0
P
!
K
:
K
P
X
K
0
K
T
0
G
P
0
*
K
X
0a
4
K
f
P
0
4
0
0
P
p
P
)
W
j
U
z
K
M
-
M
p
.
+
x
u
V
P
P
t
0K
P
K
L
0
P
K
H
-
M
P
p
G
P
PP
0K
PP
r
P
K
I
-
PR
M
p
(
K
a
P
4
#
I
k
K
O
-
jK
M
F
K
4
M
l
8
F
p
0
00K
(
p
0
P
:
K
D
K
ZK
d
d
PE
8PE
0
40K
<
4
P
u
:
K
*
K
P
K
h
h
K
4
(
0K
LP
H
~
P
b
ZK
PE
8PE
80K
8
P
W
\
K
80
T0
XP
p
/
P
a
P
*
K
d
(
K
0
p
p
p
p
3
P
*
K
0
h
p
X
PP
!
k
P
P
0
l
(
P
Y
F
V
V
%
U
K
O
-
jK
M
F
p
K
M
F
X0
(
0K
(
o
P
a
:
K
8
K
ZK
\
\
PE
R
PE
(
0K
4
0
Z
P
L
D
K
A
P
K
0
<
0
P
9
:
K
0C
0C
H
L0
pP
&
p
"
A
?
PP
K
\
P
P
0
P
p
*
K
X0
L
H
P
D
U
W
<
K
I
-
M
0
S
S
S
!
pP
0
B
PP
h
P
P
0
I
B
K
H
-
M
P
p
P
<
jK
F
P
0
"
K
Q
H
-
M
P
p
8
jK
F
P
0
K
0H
-
P
P
0
0
0
O
-
K
M
4
M
0
p
P
JK
D
D
0K
p
P
4
8
K
W
0
00
4
6
#
p
P
%
P
!
D
K
E
K
L
L
0
(
<
w
(
T
0
<
P
K
O
-
M
P
0
(
P
p
pP
P
0
K
(
0K
P
P
PP
P
0
u
P
(
P
(
P
/
U
W
K
J
O
-
M
p
r
(
PP
4
K
b
(
K
0
A
/
P
0
(
.
K
H
-
PK
M
p
<
0
|
K
pH
-
M
d
P
X
\
0
0
K
0
0
A
0
<
0
;
0
K
]
K
p
H
pH
-
M
d
P
7
\
0
0
K
0
0
0
<
0
;
0
K
<
n
K
p
G
H
-
0
G
0H
-
0
H
-
P
K
V
(
H
-
0
0
H
-
0
H
-
0
H
-
H
-
H
-
0
0
H
-
tF
0H
-
P
0
0
0
0
0
8F
0H
-
0
0H
-
P
0
H
-
H
-
H
-
M
K
0
K
0H
-
0
H
-
H
-
P
0
PE
0H
-
M
0
0
0
H
-
c
E
P
0
H
-
P
0
P
T
HP
0
0
0
P
H
-
0
S
0
0H
-
0
S
(
0
0
0
P
0
0
0H
-
0
S
0
0
0H
-
0
S
0
0
0H
-
Q
P
0
0
S
0
0
0
0H
-
0
R
0
0
0
H
-
M
0
K
0
P
0
0
0
R
0
0
K
H
-
M
K
p
P
0
0
0
R
0
0
K
H
-
M
K
K
f
P
0
0
0
R
0
0
K
H
-
M
K
v
P
0
0
0
R
0
0
K
H
-
M
K
K
l
P
0
0
0
R
0
0
K
0H
-
M
0
P
S
X
K
0
Q
P
0
0
0
R
0
0
K
0
H
-
0Q
M
K
0
P
0
R
0
0
K
0
0
0H
-
0
P
0
P
0
0
0
S
0
I
-
PK
M
0
0
%
p
#
\
0
K
0H
-
P
P
0
0
0
S
0
I
-
PK
M
0
0
%
p
f
\
0
K
0H
-
P
P
0
0
0
S
0
M
-
PK
M
%
p
;
\
0
K
0H
-
P
0
P
0
0
0
S
0
M
-
PK
M
%
p
\
0
e
K
0H
-
P
0
P
0
0
0
S
0
I
-
PK
M
0
0
%
p
q
S
\
0
8
K
0H
-
P
P
0
0
0
S
0
0H
-
P
0
0
0
I
-
PK
M
0
0
%
p
>
\
0
K
0H
-
P
P
0
0
0
S
0
0H
-
P
0
0
0
0H
-
P
\
0
R
0
R
0
R
0
S
0
0
0
0
H
-
<
<
0
T
0
L
0
0
0
0
Q
0
0
:
\
0
\
0
0H
-
L
P
0
S
3
/
0
0
R
0
0
0
:
\
0
\
0
0H
-
L
P
0
S
3
/
0
0
R
0
0
0
8
:
H
-
\
<
/
T
H
-
H
-
0
(
0
S
0
0
3
/
H
-
0
0
S
3
/
0
H
-
0
0
H
-
0
0
H
-
0
40
0
H
-
0
S
0
R
0
0
Q
0
Q
0
0
H
-
0
0
pH
-
P
0
P
0
0
P
P
p
(
8
pH
-
P
0
P
0
0
P
P
p
7
R
H
-
0
0
K
-
P
P
p
p
0
D7
I
-
4
K
M
p
P
:
40
0p
(
P
K
H
-
P
U
0
S
0
P
S
3
/
(
0
(
0
0H
-
0
6
(
0
(
0
0H
-
0
5
K
-
P
pP
P
p
P
;
L
L
PP
5
x0
pH
-
P
p
0
M
K
P
0
0
0
P
0
K
p
0
5
<
H
-
Q
p
0
P
P
9
H
-
0
%
H4
0H
-
0
0
4
H
-
<
H
-
5
0H
-
!
0
S
0
0H
-
P
0
P
0
t
?
P
0
0
0
0
0H
-
PP
0
0
0
0
O
-
M
8
8
p
P
(
8
K
0
W
4
K
p
*
0
S
0
0
(
0K
00
4
A
\
0
0
0
(
(
O
T
(
K
\
0
P
<
/
P
(
8P
2
H
-
<
<
0
T
0
L
0
0
0
0
Q
0
0
1
0H
-
P
0
P
0
P
0
0
0
0
I
-
M
LA
P
U
p
>
0
S
3
/
P
8
!
0K
K
0
K
0
0
P
V
&
0
X
/
*
0
S
40
"
P
(
K
(
P
;
P
0
S
0
(
0
0
0
P
P
P
(
K
U
K
K
8
(
0
0
0
M
-
M
X
P
0
p
p
0
S
0
P
(
0
R
8
0
S
0
R
0
R
K
0
0
&
d
PP
0
0
P
K
P
d
PP
T
O
-
M
P
P
p
\
<
/
0
8
4
K
0
(
0K
00
4
0
0
S
8
0
(
8
y
0K
80
0
V
:
K
L
.
0H
-
f
<
PP
0
0
0
0
0
0
x
-
H
-
0
R
P
:
3
#
H
-
M
K
7
P
K
H
-
M
K
0
K
H
-
M
K
#
K
0H
-
P
U
0
0
0
0
H
-
M
K
m
P
K
H
-
M
K
b
0
K
H
-
M
K
Y
K
0H
-
P
O
U
0
0
0
0
pH
-
M
K
K
P
U
K
p
6
/
p
3
pH
-
M
P
K
K
P
1
!
5
/
P
K
p
V
3
:
H
-
M
K
v
0
K
H
-
M
K
l
K
0H
-
P
c
U
0
0
0
0
0H
-
M
P
K
U
0
P
1
d
K
0
pH
-
M
K
*
K
P
%
U
K
p
6
/
p
3
pH
-
M
P
K
K
P
1
!
5
/
P
K
p
V
3
:
H
-
M
K
0
K
H
-
M
K
K
0H
-
P
U
0
0
0
0
H
-
M
K
K
0
C
0S
S
R
*
K
0a
0H
-
M
P
K
K
T
K
0
0
S
R
:
0a
I
-
M
K
P
K
(
K
p
W
*
K
U
0
U
0
0
0
0C
0
(
8
/
P
D
0
T
*
0
0c
H
-
M
P
K
K
p
T
K
K
0d
P
P
0
0
0C
0
7
/
P
0
T
0
0c
0H
-
M
P
K
H
0
P
1
d
K
0
0H
-
R
M
P
R
R
X0
K
0
0
K
=
K
0
0
0
0
&
o
l
r
pH
-
M
P
K
%
T
K
p
6
/
p
3
H
-
M
P
K
p
W
1
!
5
/
P
K
W
3
:
I
-
S
M
p
0
K
K
T
P
*
K
t0
V
0
V
0
0
0
0C
0
8
/
P
D
0
T
*
0
0c
4
I
-
S
M
p
0
K
K
V
K
t0
0f
P
P
0
0
0C
0
8
/
P
0
T
0
0c
#
4
H
-
M
p
d
K
P
k
K
K
0
P
0
0P
0
0
0
0
0
R
:
K
H
-
pH
-
R
M
R
R
p0
4PK
0
K
P
!
PK
0
K
p
0
0
0
h
"
o
l
r
H
-
P
P
0
R
U
PE
H
-
M
K
K
P
P
0
S
0
0
0
R
:
p
3
K
pH
-
M
P
K
x
T
K
p
6
/
p
3
H
-
M
P
K
p
a
P
1
!
5
/
P
K
W
3
:
0H
-
P
M
K
K
P
P
v
\
0
P
0
R
0
0
0
R
:
p
3
K
0
x
0H
-
P
P
0
0
R
0
P
:
0
3
#
0
h
x
H
-
dp
p
P
8
H0
P
0
0
R
U
PE
x
pH
-
M
K
P
K
P
1
!
0
S
Pl
0
K
p
pH
-
M
K
P
2
P
1
!
0
S
Pl
0
K
p
0H
-
M
P
K
0
P
1
d
K
0
pH
-
M
K
P
P
1
!
0
S
Pl
0
h
K
p
pH
-
M
K
P
P
1
!
0
S
Pl
0
O
K
p
0H
-
M
P
K
0
P
1
d
;
K
0
pH
-
R
M
P
%
U
K
p
K
K
0
0C
P
0
\
:
0
^
^
R
b
0
0L
K
K
P
*
0
\
\
R
0
0
0
0H
-
K
M
P
=
P
j
K
0
0H
-
M
P
W
K
0
S
C
0
P
R
K
0
H
-
R
M
R
|
0
0
K
l0
(
PK
p
p
K
P
K
%
.
T
p
0
0
0
x
W
u
l
I
-
M
K
P
p
P
T
:
T
*
P
P
P
P
T
:
P
P
0
V
0V
S
F
0
0
a
K
K
pH
-
P
M
0
K
e
K
K
K
0
4
\
0
P
*
0
R
0
Q
0
0
0
a
K
p
0
K
k
K
p
pH
-
M
P
(
K
U
U
l0
0
(
K
K
p
P0
P
K
(
K
K
P
0
0
0
W
u
l
H
-
M
K
0
<
0
0
0
0
0
0
0
R
:
K
X
x
H
-
M
K
0
<
0
0
0
0
0
0
0
R
:
K
x
pH
-
P
M
K
K
e
0
K
\
P
*
0
R
0
Q
0
0
0
a
K
K
)
K
p
pH
-
R
M
P
#
U
K
p
K
2
0
P
C
\
:
0
S
^
R
b
0
L
K
0
\
*
0
S
^
R
0
0
0
pH
-
M
K
h
0
K
P
0
0
0
0
0
0
R
:
K
p
x
pH
-
M
K
h
0
K
P
0
0
0
0
0
0
R
:
K
p
x
H
-
M
K
0
S
P
*
K
b
0H
-
M
P
K
T
K
0
0
S
P
:
b
H
-
M
P
p
K
v
U
0
K
U
0
e
6
/
P
D
0
T
*
0
c
H
-
P
2
0
I
-
M
K
p
G
K
P
A
U
*
K
W
0
W
0
0
f
8
/
P
D
0
T
*
0
c
I
-
M
P
K
p
U
K
U
0
e
7
/
P
T
0
c
H
-
P
0
I
-
M
P
K
p
V
K
K
0f
P
P
0
8
/
P
T
0
c
0H
-
P
t
0
H
-
M
K
P
p
0
~
K
pH
-
M
P
K
0
K
p
0H
-
P
e
)
0
H
-
0
S
Q
H
-
0
S
b
H
-
P
0
S
P
0
0
H
-
0
P
d
x
(
(
0
0
0
H
-
Q
4
x
H
-
P
H
-
S
0
S
H
-
0
S
H
-
0
S
P
:
a0
A
s0
p
S
P
H
-
P
P
H
-
P
P
0
H
-
p
P
-
H
-
00
M
0
R
K
H
/
H
-
PP
0
0
0
H
-
{
PP
0
0
H
-
P
S
0
\
S
0
S
^
0
S
0
0
0
H
-
0
S
H
-
M
K
V
P
K
H
-
-
PP
j
pH
-
PK
M
0
0
%
:
P
0
0
K
p
-
FC0F
^
1
A
y
Weave
User
PrivKey
mozilla
.
org
/
psm
;
1
WeaveCryptoModule
Weave
crypto
module
labs
.
mozilla
.
com
/
Weave
/
Crypto
;
1
e
H
C
2
sqS
N
_
o
;
HeDa
F
l
u
=
%
x
%
o
%
d
%
i
!
"
#
%
&
'
(
)
*
+
-
.
/
0123456789
:
;
<
=
>
?
abcdefghijklmnopqrstuvwxyz
[
\
]
^
_
abcdefghijklmnopqrstuvwxyz
{
|
}
~
!
"
#
%
&
'
(
)
*
+
-
.
/
0123456789
:
;
<
=
>
?
ABCDEFGHIJKLMNOPQRSTUVWXYZ
[
\
]
^
_
ABCDEFGHIJKLMNOPQRSTUVWXYZ
{
|
}
~
*
)
P
y
y
|
D
E
C
E
F
4z
y
Dz
Tz
dz
y
O
P
pV
T
<
Q
U
tL
O
8P
P
J
dJ
dK
K
|
J
J
P
R
TP
(
K
HK
J
O
0P
P
tJ
J
P
R
LP
K
K
J
/
;
G
T
_
j
y
-
y
o
4
!
o
o
o
o6
y
y
P
v
F
OF
z
?
GCC
:
(
GNU
)
4
.
2
.
1
GCC
:
(
GNU
)
4
.
2
.
1
GCC
:
(
GNU
)
4
.
2
.
1
GCC
:
(
GNU
)
4
.
2
.
1
GCC
:
(
GNU
)
4
.
2
.
1
GCC
:
(
GNU
)
4
.
2
.
1
GCC
:
(
GNU
)
4
.
2
.
1
GCC
:
(
GNU
)
4
.
2
.
1
GCC
:
(
GNU
)
4
.
2
.
1
A5
aeabi
+
ARM1136J
-
S
.
symtab
.
strtab
.
shstrtab
.
gnu
.
hash
.
dynsym
.
dynstr
.
gnu
.
version
.
gnu
.
version_r
.
rel
.
dyn
.
rel
.
plt
.
init
.
text
.
fini
.
rodata
.
eh_frame
.
init_array
.
fini_array
.
jcr
.
data
.
rel
.
ro
.
dynamic
.
got
.
data
.
bss
.
comment
.
ARM
.
attributes
o
%
-
4
4
5
o
B
o
Q
Z
!
!
c
^
i
)
)
P
o
y
y
u
y
y
}
|
|
H
<
p
6
~
.
4
!
)
y
y
|
)
)
)
y
y
"
-
:
)
)
)
P
_
*
*
8
*
=
=
4
=
P
=
d
=
t
=
=
=
=
=
D
*
h
*
p
*
*
*
=
>
(
>
8
>
H
>
h
>
>
+
4
-
<
-
H
/
L
/
0
0
0
0
D1
H1
3
3
5
5
6
6
7
7
|
7
7
7
7
9
9
:
(
:
;
;
>
>
>
;
;
<
l
<
<
<
(
p
y
y
>
?
?
?
?
>
J
8
U
?
?
?
HC
LC
b
C
~
hH
H
I
LI
TI
I
I
J
J
J
dJ
L
L
lL
tL
L
L
M
M
N
N
N
HN
N
N
TO
\
O
O
O
O
O
P
P
P
P
P
P
XR
R
R
R
S
S
|
T
T
U
U
hV
pV
V
z
4z
8
Dz
Tz
dz
(
V
s
X
^
l
^
(
d
|
A
<
b
\
t
|
t
(
b
<
b
t
d
d
d
d
de
le
j
0j
tl
l
l
l
Pm
Xm
o
o
dp
lp
Y
t
u
u
u
u
tw
|
w
z
g
x
"
t
|
C
L
P
u
0
0
Y
P
b
(
K
F
|
f
d
x
.
Ps
U
k
s
xc
p
8_
pV
4z
i
\
Z
(
5
U
}
L
[
X
TI
l
M
X
W
(
W
(
q
2
|
]
P
e
Lg
P
L
0
<
W
(
x
(
L
X
B
R
v
G
t
xG
[
l
(
dJ
\
C
dz
k
|
v
8
~
p
d
O
4
s
6
e
d
j
J
DH
?
H
l
h
W
0
/
R
^
Dz
Hv
4
u
W
(
y
0Y
(
ta
.
^
p
V
T
J
Y
d
!
I
T
S
w
D
f
R
T
u
y
|
H
F
.
N
u
]
O
O
8
t
(
0j
A
M
8
Z
DG
4
P
lp
T
|
t
H
I
l
z
B
g
0
[
X
x
v
4
K
X
w
H
4
P
B
o
c
p
\
XY
f
d
A
\
>
v
X
TP
8
TX
d
hH
LC
p
r
>
K
e
B
X
Do
J
4
E
4
D
t
Y
Tz
\
Z
x
l
h
x
0
dW
\
O
L
-
J
8
l
P
[
v
b
tJ
I
F
t
i
t
X
dK
H
x
4
|
Y
L
K
d
h
m
d
HN
Xu
<
Z
8
8P
W
P
w
q
le
d
l
^
\
ti
lB
\
Z
N
8
s
s
4
B
>
(
K
M
X
k
0P
c
\
|
D
4
V
D
c
8
u
8
H
Xm
h
tL
(
h
L
z
<
Q
/
E
_
{
4f
P
LP
S
h
n
:
XE
|
l
D
t
8
D
t
X
0
q
4
%
w
P
3
K
v
HK
k
|
w
?
0
J
'
a
B
|
J
<
r
M
\
A
X
*
B
X
5
l
<
4
(
D
!
|
(
>
"
7
D
Z
r
8
=
"
p
3
!
!
!
d
J
!
y
P
!
i
!
!
!
;
!
p
*
!
H
x
!
!
!
t
=
"
"
"
.
"
F
"
*
x
"
"
(
:
"
4
=
"
"
>
"
"
8
>
"
#
*
<
#
I
#
m
#
{
#
<
#
#
#
#
*
#
;
-
L
/
_
>
"
{
D
h
%
|
%
X
0
%
7
e
%
%
%
p
!
%
%
%
8
%
%
%
%
&
4
&
y
!
\
&
v
&
&
&
&
8
!
&
&
'
0
'
H1
t
'
'
<
H
'
d
;
'
0
'
<
-
"
(
7
L
r
(
0
(
(
(
=
"
(
(
9
3
)
>
)
T
l
)
)
)
P
=
"
)
x
)
)
d
=
"
*
8
0
*
H
>
"
J
*
<
*
4
*
*
P
*
|
+
+
1
+
6
+
T
+
>
+
=
"
|
+
=
"
+
+
D
*
+
?
+
(
+
0
+
=
8
"
<
W
(
!
D
D
-
|
-
/
-
6
p
-
>
D
"
-
4
!
-
h
>
"
-
L
"
-
-
.
*
&
.
L
C
.
f
.
!
initfini
.
c
call_gmon_start
a
d
crtstuff
.
c
__JCR_LIST__
__do_global_dtors_aux
completed
.
6262
__do_global_dtors_aux_fini_array_entry
frame_dummy
__frame_dummy_init_array_entry
WeaveCrypto
.
cpp
_ZZN11WeaveCrypto14QueryInterfaceERK4nsIDPPvE5table
WeaveCryptoModule
.
cpp
_Z22WeaveCryptoConstructorP11nsISupportsRK4nsIDPPv
kModuleInfo
components
nsCOMPtr
.
cpp
nsComponentManagerUtils
.
cpp
nsISupportsImpl
.
cpp
nsGenericFactory
.
cpp
_ZZN15nsGenericModule14QueryInterfaceERK4nsIDPPvE5table
_ZZN16nsGenericFactory14QueryInterfaceERK4nsIDPPvE5table
nsStringAPI
.
cpp
_Z13ns_strnimatchPKtPKcj
_Z12ns_strnmatchPKtPKcj
nsCRTGlue
.
cpp
nsMemory
.
cpp
__FRAME_END__
__JCR_END__
_ZTV28nsGetClassObjectByContractID
_ZNK27nsCreateInstanceFromFactoryclERK4nsIDPPv
_ZThn4_N16nsGenericFactory7ReleaseEv
_Z10NS_IsUpperc
_ZN13nsCOMPtr_baseD2Ev
_ZN30nsDependentCSubstring_externalC2ERK10nsACStringj
_ZN16nsGenericFactory25GetImplementationLanguageEPj
_Z18CallCreateInstanceRK4nsIDP11nsISupportsS1_PPv
_ZN30nsDependentCSubstring_externalC1ERK10nsACStringjj
_ZTV21nsGetClassObjectByCID
_Z9NS_strtokPKcPPc
_ZNK10nsACString4FindERKS_jPFiPKcS3_jE
_ZN9nsAString10StripCharsEPKc
_ZNK9nsAString7CompareEPKtPFiS1_S1_jE
_ZNK9nsAString5RFindEPKcii
_ZN15nsGenericModule7ReleaseEv
_ZN9nsIModule11COMTypeInfoIiE4kIIDE
_ZN9nsAString13AssignLiteralEPKc
_ZNK9nsAString10EndReadingEv
_ZN15nsGenericModule14UnregisterSelfEP19nsIComponentManagerP7nsIFilePKc
_ZNK9nsAString9RFindCharEt
_ZN16nsGenericFactoryD2Ev
_ZN15nsGenericModule8ShutdownEv
_ZN10nsACString9SetLengthEj
_ZN9nsAString10EndWritingEv
_ZNK10nsACString5RFindERKS_iPFiPKcS3_jE
_ZN29nsDependentSubstring_externalC2ERK9nsAStringj
_ZN30nsDependentCSubstring_externalC1ERK10nsACStringj
_ZN13nsCOMPtr_baseD1Ev
_ZN10nsACString10EndWritingEv
_ZN8nsMemory22GetGlobalMemoryServiceEv
_ZN15nsGenericModuleC1EPKcjPK21nsModuleComponentInfoPFjP9nsIModuleEPFvS6_E
_ZThn4_N16nsGenericFactory19GetClassDescriptionEPPc
_Z14CallGetServiceRK4nsIDS1_PPv
_ZNK24nsGetServiceByContractIDclERK4nsIDPPv
_ZNK9nsAString8FindCharEtj
_ZTV21nsCreateInstanceByCID
_ZN16nsGenericFactory11LockFactoryEi
_ZNK9nsAString4FindERKS_jPFiPKtS3_jE
_ZN12nsIClassInfo11COMTypeInfoIiE4kIIDE
_Z10NS_IsAsciiPKcj
_ZTV27nsCreateInstanceFromFactory
_GLOBAL_OFFSET_TABLE_
_ZNK10nsACString8FindCharEcj
_ZN15nsGenericModule14QueryInterfaceERK4nsIDPPv
_ZN30NS_ConvertUTF16toUTF8_externalC1ERK9nsAString
_ZN29nsDependentSubstring_externalC2ERK9nsAStringjj
_ZN16nsGenericFactory17GetClassIDNoAllocEP4nsID
_ZNK17nsGetServiceByCIDclERK4nsIDPPv
_ZNK25nsQueryInterfaceWithErrorclERK4nsIDPPv
_Z11ToLowerCaseR10nsACString
_ZN10nsACString12BeginWritingEPPcS1_j
_ZN16nsGenericFactory19GetClassDescriptionEPPc
_ZN17nsIGenericFactory11COMTypeInfoIiE4kIIDE
_Z10NS_IsAsciiPKc
_Z9NS_strlenPKt
_ZN9nsAString9SetLengthEj
_ZN8nsMemory12HeapMinimizeEi
_ZNK10nsACString10EndReadingEv
_ZN10nsACString17DefaultComparatorEPKcS1_j
_ZNK10nsACString7CompareEPKcPFiS1_S1_jE
_ZN15nsGenericModule14GetClassObjectEP19nsIComponentManagerRK4nsIDS4_PPv
_ZThn4_N16nsGenericFactory20GetHelperForLanguageEjPP11nsISupports
_ZNK9nsAString6EqualsERKS_PFiPKtS3_jE
_ZNK9nsAString4FindEPKcji
_ZN16nsGenericFactoryC1EPK21nsModuleComponentInfo
_Z10NS_strndupPKtj
_ZN16nsGenericFactoryC2EPK21nsModuleComponentInfo
_Z10NS_IsAsciit
_ZN11nsISupports11COMTypeInfoIiE4kIIDE
_ZN13nsCOMPtr_base18assign_with_AddRefEP11nsISupports
_ZNK21nsCreateInstanceByCIDclERK4nsIDPPv
_Z20NS_NewGenericFactoryPP17nsIGenericFactoryPK21nsModuleComponentInfo
_ZN10nsACString9AppendIntEii
_ZThn4_N16nsGenericFactory14QueryInterfaceERK4nsIDPPv
_ZN16nsGenericFactory14QueryInterfaceERK4nsIDPPv
_ZN17nsString_externalC1ERK9nsAString
_Z18CompressWhitespaceR9nsAString
_ZN15nsGenericModuleD1Ev
_ZNK33nsGetServiceByContractIDWithErrorclERK4nsIDPPv
_ZThn4_N16nsGenericFactory13GetContractIDEPPc
_ZNK10nsACString9RFindCharEc
_ZN9nsAString7ReplaceEjjRKS_
_ZN16nsGenericFactoryD1Ev
_ZN21nsIComponentRegistrar11COMTypeInfoIiE4kIIDE
_ZN9nsAString4TrimEPKcii
_ZNK10nsACString7CompareERKS_PFiPKcS3_jE
_Z10NS_IsAsciiPKt
_ZN15nsGenericModuleC2EPKcjPK21nsModuleComponentInfoPFjP9nsIModuleEPFvS6_E
_Z15NS_IsAsciiDigitt
_ZNK26nsGetServiceByCIDWithErrorclERK4nsIDPPv
_ZN15nsGenericModule6AddRefEv
_Z11ToLowerCaseRK10nsACStringRS_
__dso_handle
_ZNK9nsAString5RFindERKS_iPFiPKtS3_jE
_ZNK10nsACString12BeginReadingEv
_ZN30nsDependentCSubstring_externalC2ERK10nsACStringjj
_ZN13nsCOMPtr_base25assign_from_gs_contractidE24nsGetServiceByContractIDRK4nsID
_Z20NS_IsAsciiWhitespacet
_ZN16nsGenericFactory10GetClassIDEPP4nsID
_ZNK10nsACString6EqualsERKS_PFiPKcS3_jE
_Z16NS_TableDrivenQIPvPK12QITableEntryRK4nsIDPS_
_ZN13nsCOMPtr_base14assign_from_qiE16nsQueryInterfaceRK4nsID
_ZNK10nsACString4FindEPKcjPFiS1_S1_jE
_ZThn4_N16nsGenericFactory8GetFlagsEPj
_ZN13nsCOMPtr_base29assign_from_gs_cid_with_errorERK26nsGetServiceByCIDWithErrorRK4nsID
_Z11ToUpperCaseRK10nsACStringRS_
_ZN16nsGenericFactory20GetHelperForLanguageEjPP11nsISupports
_ZNK21nsGetClassObjectByCIDclERK4nsIDPPv
_Z10NS_strspnpPKcS0_
_ZN10nsIFactory11COMTypeInfoIiE4kIIDE
_ZNK9nsAString7CompareERKS_PFiPKtS3_jE
_Z11ToUpperCaseR10nsACString
_Z9NS_strdupPKt
_ZN10nsACString12BeginWritingEj
_ZN15nsGenericModule14AddFactoryNodeEP17nsIGenericFactory
_ZN16nsGenericFactory14CreateInstanceEP11nsISupportsRK4nsIDPPv
_ZN16nsGenericFactory13GetContractIDEPPc
_ZTV28nsCreateInstanceByContractID
_ZNK9nsAString12BeginReadingEPPKtS2_
_Z15NS_IsAsciiAlphat
_ZNK9nsAString13EqualsLiteralEPKc
_ZThn4_N16nsGenericFactory13GetInterfacesEPjPPP4nsID
_Z14CallGetServicePKcRK4nsIDPPv
_ZN31NS_ConvertASCIItoUTF16_externalC1EPKcj
_ZN16nsGenericFactory16SetComponentInfoEPK21nsModuleComponentInfo
_ZN8nsMemory5CloneEPKvj
_ZNK10nsACString12BeginReadingEPPKcS2_
_Z20NS_NewGenericModule2PK12nsModuleInfoPP9nsIModule
_Z22CaseInsensitiveComparePKcS0_j
_ZN9nsAString13AppendLiteralEPKc
_ZN13nsCOMPtr_base18assign_from_helperERK15nsCOMPtr_helperRK4nsID
_ZN16nsGenericFactory6CreateEP11nsISupportsRK4nsIDPPv
_Z9NS_strcmpPKtS0_
_ZNK9nsAString12BeginReadingEv
_ZN16nsGenericFactory6AddRefEv
_ZN16nsGenericFactory7ReleaseEv
_ZNK10nsACString5RFindEPKciPFiS1_S1_jE
_ZN29nsDependentSubstring_externalC1ERK9nsAStringjj
_ZNK10nsACString6EqualsEPKcPFiS1_S1_jE
_ZNK10nsACString9ToIntegerEPjj
_ZN13nsCOMPtr_base18assign_from_gs_cidE17nsGetServiceByCIDRK4nsID
_ZN15nsGenericModuleD2Ev
_ZNK10nsACString4FindEPKcPFiS1_S1_jE
_ZN13nsCOMPtr_base25assign_from_qi_with_errorERK25nsQueryInterfaceWithErrorRK4nsID
_ZN18nsCString_externalC1ERK10nsACString
_ZThn4_N16nsGenericFactory25GetImplementationLanguageEPj
_ZN9nsAString12BeginWritingEj
_ZThn4_N16nsGenericFactory6AddRefEv
_ZNK9nsAString6EqualsEPKtPFiS1_S1_jE
_ZNK28nsGetClassObjectByContractIDclERK4nsIDPPv
_ZN9nsAString17DefaultComparatorEPKtS1_j
_ZNK9nsAString22LowerCaseEqualsLiteralEPKc
_Z10NS_IsLowerc
_ZN10nsACString10StripCharsEPKc
_ZN15nsGenericModule9CanUnloadEP19nsIComponentManagerPi
_Z15ToNewUTF8StringRK9nsAString
_ZN17nsLowerUpperUtils12kUpper2LowerE
_ZN15nsGenericModule12RegisterSelfEP19nsIComponentManagerP7nsIFilePKcS5_
_ZNK28nsCreateInstanceByContractIDclERK4nsIDPPv
_ZN17nsLowerUpperUtils12kLower2UpperE
_ZN29nsDependentSubstring_externalC1ERK9nsAStringj
_ZThn4_N16nsGenericFactory10GetClassIDEPP4nsID
_ZN15nsGenericModule10InitializeEP19nsIComponentManager
_ZN10nsACString4TrimEPKcii
_Z18CallCreateInstancePKcP11nsISupportsRK4nsIDPPv
_Z18CallGetClassObjectRK4nsIDS1_PPv
_ZN13nsCOMPtr_base16begin_assignmentEv
_Z18CallGetClassObjectPKcRK4nsIDPPv
_ZN9nsAString12BeginWritingEPPtS1_j
_ZNK10nsACString5RFindEPKcPFiS1_S1_jE
printf_stderr
_ZN16nsGenericFactory16GetComponentInfoEPPK21nsModuleComponentInfo
_ZN16nsGenericFactory8GetFlagsEPj
_ZNK9nsAString9ToIntegerEPjj
_Z9NS_strdupPKc
_ZNK16nsQueryInterfaceclERK4nsIDPPv
_ZThn4_N16nsGenericFactory17GetClassIDNoAllocEP4nsID
_DYNAMIC
_ZN9nsAString9AppendIntEii
_ZN16nsGenericFactory13GetInterfacesEPjPPP4nsID
_Z19NS_NewGenericModulePKcjP21nsModuleComponentInfoPFvP9nsIModuleEPS4_
_ZN13nsCOMPtr_base36assign_from_gs_contractid_with_errorERK33nsGetServiceByContractIDWithErrorRK4nsID
_ZN11WeaveCrypto14SetKeypairBitsEj
NS_StringSetDataRange
_ZN11WeaveCrypto17GenerateRandomKeyER10nsACString
_ZN11WeaveCrypto14QueryInterfaceERK4nsIDPPv
_ZTV12IWeaveCrypto
PK11_ExtractKeyValue
NSS_3
.
3
_ZN10nsACString6AssignERKS_
memcmp
GLIBC_2
.
4
_ZN11WeaveCrypto15EncodePublicKeyEP18SECKEYPublicKeyStrR10nsACString
NS_StringContainerInit2
PR_AtomicIncrement
NS_CStringSetData
_ZN11nsISupportsC2Ev
PK11_CreateContextBySymKey
NSS_3
.
2
__gmon_start__
_ZN11WeaveCrypto16WrapSymmetricKeyERK10nsACStringS2_RS0_
_Jv_RegisterClasses
_ZdlPv
GLIBCXX_3
.
4
PR_Malloc
_fini
NS_StringContainerFinish
NS_StringGetMutableData
NS_StringCopy
_ZN11WeaveCryptoC2Ev
_ZN11WeaveCryptoD1Ev
_ZTV16nsGenericFactory
memset
GLIBC_2
.
4
PL_Base64Encode
_ZN13nsCOMPtr_baseC2EP11nsISupports
NS_Alloc
NS_CStringCopy
NS_CStringContainerInit
_ZN11WeaveCrypto12DecodeBase64ERK10nsACStringPcPj
PK11_GetBlockSize
NSS_3
.
2
_ZN11WeaveCrypto7EncryptERK10nsACStringS2_S2_RS0_
_ZN12nsAutoRefCntmmEv
_ZN8nsCOMPtrI11nsISupportsED1Ev
_ZNK18nsCString_external3getEv
_ZN11WeaveCrypto12GetAlgorithmEPj
__data_start
PK11_SetPrivateKeyNickname
NSS_3
.
4
__bss_start__
_ZN11WeaveCrypto6AddRefEv
PK11_KeyGen
NSS_3
.
2
NS_GetMemoryManager
PK11_GetKeyData
NSS_3
.
3
_ZN11WeaveCrypto14GetKeypairBitsEPj
_ZN11WeaveCrypto12EncodeBase64ERK10nsACStringRS0_
_ZN11WeaveCrypto7DecryptERK10nsACStringS2_S2_RS0_
_ZN10nsACString6AssignEPKcj
NS_CStringToUTF16
NS_StringContainerInit
NS_GetComponentManager
_ZTV11WeaveCrypto
PR_sscanf
strlen
GLIBC_2
.
4
PK11_WrapPrivKey
NSS_3
.
3
__exidx_end
SECKEY_DestroyPublicKey
NSS_3
.
2
_ZN11WeaveCrypto19GenerateRandomBytesEjR10nsACString
NS_CStringContainerFinish
NS_StringGetData
_ZTV11nsISupports
memcpy
GLIBC_2
.
4
PK11_ParamFromIV
NSS_3
.
2
PR_Free
strcpy
GLIBC_2
.
4
__end__
__bss_end__
__aeabi_uidiv
GCC_3
.
5
PK11_GetInternalKeySlot
NSS_3
.
2
_ZN12IWeaveCrypto11COMTypeInfoIiE4kIIDE
PK11_GetIVLength
NSS_3
.
3
NS_CStringGetData
NS_CStringSetDataRange
__cxa_pure_virtual
CXXABI_1
.
3
_ZTV9nsIModule
SECKEY_DecodeDERSubjectPublicKeyInfo
NSS_3
.
4
NS_CStringCloneData
SECKEY_ExtractPublicKey
NSS_3
.
3
_ZN11WeaveCrypto18UnwrapSymmetricKeyERK10nsACStringS2_S2_S2_S2_RS0_
_Znwj
GLIBCXX_3
.
4
_ZN11WeaveCrypto7ReleaseEv
_ZN11WeaveCryptoC1Ev
_ZN11WeaveCrypto12DecodeBase64ERK10nsACStringRS0_
_ZN11WeaveCrypto11CommonCryptEPKcjPcPjRK10nsACStringS6_m
_ZN11WeaveCrypto14WrapPrivateKeyEP19SECKEYPrivateKeyStrRK10nsACStringS4_S4_RS2_
_ZN11WeaveCrypto12EncodeBase64EPKcjR10nsACString
__bss_start
PK11_FreeSymKey
NSS_3
.
2
_ZN12nsAutoRefCntppEv
PK11_CipherOp
NSS_3
.
2
_ZN11WeaveCrypto15GenerateKeypairERK10nsACStringS2_S2_RS0_S3_
_bss_end__
SECKEY_EncodeDERSubjectPublicKeyInfo
NSS_3
.
3
PK11_UnwrapPrivKey
NSS_3
.
3
PK11_CreatePBEV2AlgorithmID
NSS_3
.
12
_ZN12nsAutoRefCntaSEj
PK11_PubWrapSymKey
NSS_3
.
2
NS_CStringGetMutableData
_ZN24nsGetServiceByContractIDC1EPKc
PR_AtomicDecrement
_ZNK10nsACString6LengthEv
_ZN11WeaveCrypto23DeriveKeyFromPassphraseERK10nsACStringS2_PP13PK11SymKeyStr
PK11_GetInternalSlot
NSS_3
.
2
NS_GetServiceManager
SECKEY_DestroyPrivateKey
NSS_3
.
2
PK11_DigestFinal
NSS_3
.
2
NS_UTF16ToCString
NS_CStringContainerInit2
_end
PK11_PubUnwrapSymKey
NSS_3
.
2
NSGetModule
_ZN18nsCString_externalC1Ev
_ZN12nsAutoRefCntC1Ev
stderr
GLIBC_2
.
4
_ZN11WeaveCryptoD2Ev
vfprintf
GLIBC_2
.
4
PK11_FreeSlot
NSS_3
.
2
snprintf
GLIBC_2
.
4
PL_Base64Decode
_ZN12IWeaveCryptoC2Ev
PK11_GetPadMechanism
NSS_3
.
4
PK11_ImportSymKey
NSS_3
.
3
SECKEY_DestroySubjectPublicKeyInfo
NSS_3
.
2
_edata
SECITEM_FreeItem
NSS_3
.
2
_ZTV15nsGenericModule
_ZTV10nsIFactory
PK11_GenerateKeyPair
NSS_3
.
2
PK11_PBEKeyGen
NSS_3
.
2
__exidx_start
PK11_AlgtagToMechanism
NSS_3
.
2
_ZN11WeaveCrypto16GenerateRandomIVER10nsACString
_ZN8nsCOMPtrI11nsISupportsEC1E24nsGetServiceByContractID
_ZTV12nsIClassInfo
_ZN18nsCString_externalD1Ev
__cxa_finalize
GLIBC_2
.
4
PK11_DestroyContext
NSS_3
.
2
_init
_ZN11WeaveCrypto12SetAlgorithmEj
PK11_GenerateRandom
NSS_3
.
2
SECOID_DestroyAlgorithmID
NSS_3
.
2
_ZTV17nsIGenericFactory
