ELF
>
8
8
"
P
h
P
td
0
0
0
t
t
Q
td
a
v
?
C
1
>
6
t
*
<
#
G
n
I
c
a
V
B
d
:
Z
-
'
s
L
F
N
Q
o
K
9
[
f
D
+
=
m
_
X
^
\
r
%
7
8
k
A
"
0
b
]
H
3
p
(
M
/
Y
P
T
l
O
i
2
e
j
&
h
4
R
S
E
J
;
q
U
)
5
g
W
.
u
!
%
O
ER
0
ip
L
0
h
E
IIB
B
O
P
R
S
U
W
X
Y
^
a
c
d
f
g
h
i
j
k
l
m
o
q
r
t
~
O
s
]
Whz
V
>
w
g
.
HN
6
y
u
qEpM
N
-
u
Fi
-
g0
M
K
lz
j
c5
C
qX
|
YT1P
?
CE
y
c
TU
G
2
O
p
7
b
+
:
-
7
7
:
H
8
8
"
C
2
)
G
_
I
6
u
T
{
j
)
/
I
:
W
_
7
*
?
T
4
F
W
3
u
9
L
J
[
F
O
.
O
0
8
S
DM
r
*
9
9
fH
g
!
p
B
D
9
N
S
J
=
4
F
"
O
9
9
O
?
A
D
XG
m
A
!
I
M
BL
Y
8
9
n
!
P
'
h
:
B
N
S
V
;
0
P
?
8
tN
T
G
\
A
2
"
H
C
Q
~
__gmon_start__
_init
_fini
__cxa_finalize
_Jv_RegisterClasses
_ZN11WeaveCrypto6AddRefEv
_ZN11WeaveCryptoD2Ev
_ZTV11WeaveCrypto
_ZN11WeaveCryptoD1Ev
_ZN11WeaveCrypto12GetAlgorithmEPj
_ZN11WeaveCrypto12SetAlgorithmEj
_ZN11WeaveCrypto14GetKeypairBitsEPj
_ZN11WeaveCrypto14SetKeypairBitsEj
NS_CStringContainerInit
NS_CStringCopy
_ZNK10nsACString6LengthEv
NS_CStringGetData
_ZN11WeaveCrypto12DecodeBase64ERK10nsACStringPcPj
PL_Base64Decode
NS_CStringContainerFinish
_ZN11WeaveCrypto23DeriveKeyFromPassphraseERK10nsACStringS2_PP13PK11SymKeyStr
PK11_CreatePBEV2AlgorithmID
PK11_GetInternalSlot
PK11_PBEKeyGen
SECOID_DestroyAlgorithmID
PK11_FreeSlot
_ZN11WeaveCrypto16VerifyPassphraseERK10nsACStringS2_S2_S2_Pi
PK11_AlgtagToMechanism
PK11_GetPadMechanism
PK11_ParamFromIV
PK11_UnwrapPrivKey
SECKEY_DestroyPrivateKey
PK11_FreeSymKey
SECITEM_FreeItem
_ZN11WeaveCrypto11CommonCryptEPKcjPcPjRK10nsACStringS6_m
PK11_GetInternalKeySlot
PK11_ImportSymKey
PK11_CreateContextBySymKey
PK11_CipherOp
PK11_DigestFinal
PK11_DestroyContext
_ZN11WeaveCrypto7DecryptERK10nsACStringS2_S2_RS0_
PR_Malloc
NS_CStringSetData
PR_Free
_ZN11WeaveCrypto12DecodeBase64ERK10nsACStringRS0_
_ZN11WeaveCrypto12EncodeBase64EPKcjR10nsACString
PL_Base64Encode
_ZN11WeaveCrypto18UnwrapSymmetricKeyERK10nsACStringS2_S2_S2_S2_RS0_
PK11_PubUnwrapSymKey
PK11_ExtractKeyValue
PK11_GetKeyData
_ZN11WeaveCrypto16WrapSymmetricKeyERK10nsACStringS2_RS0_
SECKEY_DecodeDERSubjectPublicKeyInfo
SECKEY_ExtractPublicKey
PK11_PubWrapSymKey
SECKEY_DestroySubjectPublicKeyInfo
SECKEY_DestroyPublicKey
_ZN11WeaveCrypto17GenerateRandomKeyER10nsACString
PK11_KeyGen
_ZN11WeaveCrypto16GenerateRandomIVER10nsACString
PK11_GetIVLength
PK11_GenerateRandom
_ZN11WeaveCrypto19GenerateRandomBytesEjR10nsACString
_ZN11WeaveCrypto15EncodePublicKeyEP18SECKEYPublicKeyStrR10nsACString
SECKEY_EncodeDERSubjectPublicKeyInfo
_ZN11WeaveCrypto14WrapPrivateKeyEP19SECKEYPrivateKeyStrRK10nsACStringS4_S4_RS2_
PK11_WrapPrivKey
_ZN11WeaveCrypto16RewrapPrivateKeyERK10nsACStringS2_S2_S2_S2_RS0_
_ZN11WeaveCrypto15GenerateKeypairERK10nsACStringS2_S2_RS0_S3_
PK11_GenerateKeyPairWithFlags
PK11_SetPrivateKeyNickname
_ZN11WeaveCrypto7EncryptERK10nsACStringS2_S2_RS0_
PK11_GetBlockSize
_ZN11WeaveCrypto12EncodeBase64ERK10nsACStringRS0_
_ZN11WeaveCryptoC1Ev
_ZN11WeaveCryptoC2Ev
_ZN11WeaveCrypto14QueryInterfaceERK4nsIDPPv
_ZN11WeaveCrypto7ReleaseEv
_ZdlPv
_ZTV12IWeaveCrypto
__cxa_pure_virtual
_ZN12IWeaveCrypto11COMTypeInfoIiE4kIIDE
NSGetModule
_Znwm
NS_GetComponentManager
NS_GetServiceManager
PR_AtomicIncrement
NS_Alloc
strcpy
PR_AtomicDecrement
NS_CStringGetMutableData
NS_StringGetMutableData
NS_UTF16ToCString
NS_CStringContainerInit2
NS_StringGetData
NS_StringContainerInit2
snprintf
NS_CStringSetDataRange
memcmp
NS_StringContainerInit
NS_CStringToUTF16
NS_StringSetDataRange
NS_StringContainerFinish
NS_StringCopy
NS_CStringCloneData
PR_sscanf
stderr
vfprintf
NS_GetMemoryManager
NS_Free
NS_Realloc
memmove
libxpcom
.
so
libnspr4
.
so
libsmime3
.
so
libssl3
.
so
libnss3
.
so
libnssutil3
.
so
libplds4
.
so
libplc4
.
so
libstdc
+
+
.
so
.
6
libm
.
so
.
6
libgcc_s
.
so
.
1
libpthread
.
so
.
0
libc
.
so
.
6
_edata
__bss_start
_end
WeaveCrypto
.
so
CXXABI_1
.
3
GLIBCXX_3
.
4
GLIBC_2
.
2
.
5
NSS_3
.
12
NSS_3
.
10
.
2
NSS_3
.
4
NSS_3
.
2
NSS_3
.
3
0
k
;
t
)
F
u
i
R
rd
^
{
d
g
D
&
r
B
&
z
C
&
8
tS
0
T
P
R
p
T
LU
[
\
a
_
\
nY
[
\
\
X
(
X
(
X
0
X
8
2X
dX
H
\
\
P
D
^
X
0
\
X
h
X
p
X
[
\
\
X
^
X
V
\
>
^
*
\
X
X
X
0
O
p
P
x
o
Q
^
]
g
Y
T
e
O
b
q
X
a
d
m
*
*
*
(
*
0
*
8
*
*
H
*
P
*
X
*
*
h
*
p
*
x
*
*
*
*
*
*
*
p
*
x
*
*
*
*
*
*
*
*
*
*
*
*
*
*
*
*
(
*
0
*
P
*
X
*
*
h
*
p
*
x
*
*
*
*
*
*
W
(
h
0
B
P
X
h
t
p
x
R
U
(
0
8
H
P
!
X
"
#
h
p
%
x
&
'
(
)
+
-
.
p
[
V
r
/
0
1
2
3
4
5
6
7
\
(
k
0
8
8
9
:
H
;
P
<
X
=
>
h
?
p
x
A
C
D
E
F
G
H
I
J
K
L
M
N
H
G
P
H
5b
%
d
%
b
h
%
Z
h
%
R
h
%
J
h
%
B
h
%
:
h
%
2
h
%
*
h
p
%
"
h
%
h
P
%
h
%
h
0
%
h
%
h
%
h
%
h
%
h
%
h
%
h
%
h
%
h
%
h
%
h
%
h
p
%
h
%
h
P
%
h
%
h
0
%
h
%
z
h
%
r
h
%
j
h
%
b
h
%
Z
h
!
%
R
h
"
%
J
h
#
%
B
h
%
:
h
%
%
2
h
&
%
*
h
'
p
%
"
h
(
%
h
)
P
%
h
*
%
h
+
0
%
h
%
h
-
%
h
.
%
h
/
%
h0
%
h1
%
h2
%
h3
%
h4
%
h5
%
h6
%
h7
p
%
h8
%
h9
P
%
h
:
%
h
;
0
%
h
<
%
z
h
=
%
r
h
>
%
j
h
?
%
b
h
%
Z
hA
%
R
hB
%
J
hC
%
B
hD
%
:
hE
%
2
hF
%
*
hG
p
%
"
hH
%
hI
P
%
hJ
%
hK
0
%
hL
%
hM
%
hN
%
hO
%
hP
%
hQ
H
H
H
t
H
U
=
H
ATSubH
=
t
H
=
H
w
L
%
w
H
L
)
H
H
X
H9
s
D
H
B
H
A
H
H9
r
[
A
\
f
UH
=
gw
H
t
"
H
K
H
t
H
=
Ow
I
A
G
G
H
3
H
H
H
#
H
H
G
1
w
1
G
1
w
1
AVI
AUI
ATUSH
H
H
<
u
A
E
1
H
!
H
H
+
)
H
H
H
|
=
)
)
H
H
|
=
)
A9m
r1H
A
m
H
(
H
L
m
H
W
H
ZY
[
]
A
\
A
]
A
^
AWI
AVE1
AUI
ATI
USH
h
H
H
H
D
H
S
(
H
H
(
H
\
H
L
L
0
\
u
H
D
L
A
&
\
H
A
}
U
H
I
tE
H
H
t8H
E1
1
L
H
I
L
H
1
I
?
u
H
H
h
[
]
A
\
A
]
A
^
A_
AWM
AVI
AUI
ATUH
SH
L
P
H
L
L
HA
H
L
H
N
H
p
1
L
L
H
H
L
x
g
L
d
PH
L
H
L
7
H
P
1
L
X
}
^
H
I
I9
L
P
L
L
H
I
u
1
H
H
u
H
H
L
p
E1
H
L
L
H
D
0
D
(
H
D
H
D
D
D
L
4
H
H
t
H
D
H
1
E1
H
H
t
H
t
H
M
t
L
&
H
[
]
A
\
A
]
A
^
A_
AWM
AVAUATUH
SH
x
L
H
L
H
l
H
t
T
L
L
l
h
L
d
H
H
h
H
L
1
H
l
H
L
H
P
h
L
(
0
}
c
H
H
H9
H
H
E1
H
I
H
I
H
L
E1
H
H
H
I
H
H
L
H
H
H
tkA
D
L
H
d
L
D
H
t
H
x
~
Hc
d
H
H
)
A
7H
t
xV
A
ME1
E1
L
M
t
L
M
t
L
H
x
[
]
A
\
A
]
A
^
A_
H
AWI
AVI
AUI
H
ATUSH
H
(
L
D
H
D
D
|
I
t
H
H
t
M
u
gH
L
H
H
L
x
>
T
L
D
M
L
H
L
H
D
L
4
p
x
T
H
|
L
L
H
H
(
[
]
A
\
A
]
A
^
A_
AVI
AUI
H
ATI
US
H
D
H
H
t
<
H
L
H
L
L
0
y
H
B
T
H
L
1
O
H
'
^
_
[
]
A
\
A
]
A
^
AVI
AUI
ATU
SH
u
"
H
\
H
L
H
H
L
E
1
D
D
H
H
t
%
H
L
J
L
D
H
H
1
H
[
]
A
\
A
]
A
^
AWI
AVM
AUI
H
ATUSH
0
H
P
H
L
HH
0
L
L
H
0
H
H
0
0
E1
H
0
D
L
0
H
0
0
H
P
H
0
L
H
0
H
p0
D
L
0
H
0
L
H
x0
H
t
H
0
H
l
PH
t
H
0
L
0
H
(
H
P0
D
0
H
X0
A
0
H
E
H
H9
H
P0
H
E1
H
H
I
]
H
I
H
0
H
0
L
0
E1
L
H
L
H
D
0
D
(
H
D
H
D
D
D
H
e
H
I
teH
p0
E1
H
H
B
H
H
H
H
n
H
tu
P
H
p
L
H
1
_E1
E1
H
H
0
H
t
M
t
L
M
t
L
(
H
0
[
]
A
\
A
]
A
^
A_
L
W
H
u
AWI
AVAUI
H
ATUSH
x0
L
H
L
H
l0
l0
L
.
1
H
P0
L
h0
L
X0
l0
L
H
h0
L
L
0
7
H
00
h0
H
0
L
80
0
H
D
0
H
0
&
H
I
A
!
H
H9
L
00
E1
L
H
I
tqH
P0
H
I
t
\
H
H
H
tN
H
0
H
L
H
!
u
0
H
0
L
H
L
E1
L
+
M
t
L
M
t
L
H
x0
[
]
A
\
A
]
A
^
A_
H
U
AVI
AUI
ATUS
G
=
t
=
t
=
u
|
H
I
tZE1
1
H
Q
H
H
t
/
H
u
=
H
e
H
t0
P
H
p
L
L
L
[
]
A
\
A
]
A
^
H
AUI
ATI
USH
U
H
=
w
H
U
x
L
H
L
?
I
H
[
]
A
\
A
]
AUI
ATUH
S
H
w
*
H
x
H
H
L
I
H
[
]
A
\
A
]
UH
H
SH
H
H
t
P
H
p
H
H
I
AX
[
]
AWH
M
AVI
H
H
AUATI
USL
H
h
H
P
H
P
5
H
H
\
H
L
\
H
2
E1
H
0
D
\
H
8
A
|
H
M
H
H9
H
0
H
H
H
H
D
H
P
L
I
H
D
H
L
H
I
~
H
<
H
H
P
u
!
H
L
L
I
H
h
[
]
A
\
A
]
A
^
A_
AWM
AVI
AUATI
USH
H
P
H
L
HH
L
L
H
H
H
E1
H
p
D
L
H
L
H
x
H
T
H
H
l
PH
L
L
H
8
S
H
P
D
H
X
A
~
H
U
H
H9
H
P
H
E1
H
H
I
m
H
I
H
H
L
p
E1
L
H
L
H
H
D
0
D
(
H
D
H
D
D
D
u
H
H
t
<
L
H
L
HL
H
T
M
H
H
H
E1
E1
H
H
t
M
t
L
-
M
t
L
k
H
[
]
A
\
A
]
A
^
A_
AWI
AVM
AUI
ATU1
S
H
HH
t
H
T
L
D
H
D
8
G
H
D
(
D
H
I
ttH
L
8H
T
E1
1
A
J
H
H
H
tJH
5o6
H
o
u7H
L
H
T
M
M
H
L
x
H
t
8H
T
L
y
H
|
8H
t
H
t
H
M
t
L
H
H
[
]
A
\
A
]
A
^
A_
AWI
AVI
AUI
ATI
USH
HL
D
]
1
H
L
<
|
<
H
H
twH
\
L
H
H
H
A
L
D
<
H
M
H
D
L
H
D
L
4
x
T
<
H
L
H
L
H
#
H
|
H
H
[
]
A
\
A
]
A
^
A_
AVI
AUI
ATSH
H
%
H
G
H
c
L
L
H
H
H
[
A
\
A
]
A
^
SH
5
4
H
H
i
H
i
G
G
G
H
H
H
H
H
AYAZ
[
SH
5s4
H
H
Mi
H
6i
G
G
G
H
H
H
H
D
H
:
A
[
[
[
H
H
H
5
b
USH
H
G
h
o
u
G
h
H
]
[
]
ATI
SH
H
XH
L
[
A
\
i
H
1
H
t
H
H
=
H
AUI
ATI
U
SH
H
H
uA
H
H
H
t
"
H
H
P
H
H
L
L
H
H
P
Z
[
]
A
\
A
]
H
?
H
t
H
L
A
SH
H
?
H
t
H
H
S
H
t
[
H
?
H
t
H
L
X
A
H
?
H
t
H
L
X
A
UH
SH
H
H
t
H
H
P
H
}
H
]
H
t
H
L
X
Z
[
]
A
X
[
]
SH
H
?
H
H
t
H
P
H
[
SH
H
H
H
H
H
T
x
H
;
H
D
H
H
t
H
P
Y
^
[
H
D
SH
H
H
H
H
T
x
H
;
H
D
H
H
t
H
P
_AX
[
H
D
SH
H
H
t
H
|
H
H
T
x
H
;
H
D
H
H
t
H
P
H
[
H
D
SH
H
H
H
H
T
x
H
;
H
D
H
H
t
H
P
AYAZ
[
H
D
SH
H
H
t
H
|
H
H
T
x
H
;
H
D
H
H
t
H
P
H
[
H
D
UH
SH
H
H
H
;
H
t
H
H
T
H
S
H
t
x
H
}
H
D
H
H
E
t
H
P
H
[
]
H
D
SH
H
H
H
H
t
)
H
H
T
x
H
;
H
D
H
H
t
H
P
A
[
[
[
H
D
UH
H
H
H
SH
H
H
H
s
L
A
P
x
H
S
H
t
Z
[
]
H
E
AVAUI
ATI
UH
SH
H
H
u
H
u
H
<
H
t
H
H
L
L
P
H
Y
^
[
]
A
\
A
]
A
^
UH
SH
H
H
x
H
U
H
t
_
[
]
H
AVAUI
ATI
UH
SH
H
H
H
H
<
H
t
H
H
L
L
P
H
Y
AXAY
[
]
A
\
A
]
A
^
UH
SH
H
H
x
H
U
H
t
AZ
[
]
H
AWAVI
AUI
ATI
UH
SH
H
H
N
H
N
H
<
H
t
H
I
L
L
L
P0
H
H
[
]
A
\
A
]
A
^
A_
UH
H
H
SH
H
H
G
H
H
t
x
H
S
H
t
A
[
[
]
H
E
AWAVI
AUI
ATI
UH
SH
H
H
H
H
<
H
t
H
I
L
L
L
P
(
H
H
[
]
A
\
A
]
A
^
A_
UH
H
H
SH
H
H
G
H
H
t
x
H
S
H
t
[
[
]
H
E
AVAUI
ATI
UH
SH
H
H
H
H
<
H
t
H
H
L
L
P
H
s
]
A
\
[
]
A
\
A
]
A
^
UH
SH
H
H
?
x
H
U
H
t
Z
[
]
H
SH
?
H
d
x
[
H
[
AVAUI
ATI
UH
SH
H
H
S
H
c
H
<
H
t
H
H
L
L
P
H
Y
^
[
]
A
\
A
]
A
^
UH
SH
H
H
?
x
H
U
H
t
_
[
]
H
SH
?
H
f
x
[
H
[
UH
SH
H
H
H
t7
;
u
B
;
A
u
B
;
A
u
B
;
A
u
Hc
^
H
H
H
P
1
H
]
H
E
Z
[
]
H
[
H
G
H
w
H
H
%
\
H
G
t
H
VPH
t
H
G
H
H
[
SH
H
H
[
H
G
H
G
H
t
H
8H
t
H
C
H
PH
t
H
[
H
;
[
SH
H
H
[
H
G
H
G
H
t
H
8H
t
H
C
H
PH
t
H
[
H
G
I
H
H
H
t
H
L
I
A
T
1
H
H
G
H
H
H
H
t
H
I
A
1
H
H
H
G
H
H
HH
t
I
A
1
H
H
H
W
H
B
H
H
B
H
F
1
H
1
H
H
G
X
1
H
G
H
t
H
PH
t
H
H
H
w
t
H
VPH
t
H
G
H
1
H
G
H
1
H
Y
G
G
H
w
W
H
H
O
H
G
(
L
G0L
O8
H
oY
G
G
H
w
W
H
H
O
H
G
(
L
G0L
O8
H
t
ATI
SH
H
S
H
L
C
(
H
C
H
s
H
K
H
X
G
W
G
H
H
G
H
O
H
G
(
H
w0L
G8I
<
H
P
Z
[
A
\
1
UM
SE1
I
H
D
H
H
HL
L
L
t
(
L
L
H
\
8
D
P
L
\
H
T
H
H
[
]
ATI
US
H
]
H
H
I
\
(
I
l
(
H
u
A
|
t
I
D
8A
D
H
t
[
]
L
I
A
\
A
[
]
A
\
H
X
H
H
W
H
AUI
ATI
U
SH
H
t
Y
[
]
A
\
A
]
H
H
X
L
C
H
C
L
H
H
mX
H
H
C
W
t
H
H
*
ATI
1
UH
H
5
(
SH
H
T
e
x
H
|
H
H
P
(
H
|
x
I
<
^
_
[
]
A
\
H
P
AU
I
ATUH
SH
H
t
-
M
e
(
H
H
H
H
L
c
1
I
]
(
AX
[
]
A
\
A
]
H
H
H
5
W
H
H
H
H
5
X
H
H
H
H
SH
H
H
"
H
H
[
%
H
UH
SH
H
H
G
H
P
H
t
;
1
H
H
H
H
L
H
H
H
t
H
E
H
p
1
AY
[
]
H
H
SH
H
t
[
H
C
H
~
[
1
AWI
AVI
AUM
ATE1
USH
hH
D
\
H
|
8H
t
0
D
\
H
o
H
D
(
H
D
H
D
H
D
PH
D
H
D
8D9
v
~
H
}
H
D
(
H
|
H
m
&
H
t
H
D
P
H
D
HH
D
0H
D
H
|
PH
t
H
H
M
H
u
L
M
M
H
U
P8
D
\
D
_
H
|
t
D
\
H
h
[
]
A
\
A
]
A
^
A_
H
E
(
H
t
I
L
L
L
H
|
0
D
\
x
H
I
4
H
T
H
G
H
w
H
H
aU
H
G
t
H
VPH
t
H
G
H
H
UH
SH
H
H
G
H
H
t
:
1
H
H
H
H
e
H
H
H
t
H
E
H
0
1
AZ
[
]
H
AWAVAUE1
ATI
USH
H
8
H
G0H
t
A
D
H
D
H
|
H
H
H
H
D
H
D
D
l
E
I
l
L
|
A
E1
E9t
H
}
t
EX
t
L
H
D
c
H
H
H
}
H
T
t
[
H
|
I
H
M
H
u
H
U
H
P
(
D
H
L
t
H
|
H
8D
[
]
A
\
A
]
A
^
A_
H
I
]
H
L
E1
A
D
A
1
AVI
AUM
ATI
UH
S
H
M
I
H
]
u
1
H
9
ts
C
A
;
u
H
S
B
A
;
D
u
B
A
;
D
u
B
A
;
D
u
H
H
?
H
H
x
H
<
L
L
H
H
A
[
[
[
]
A
\
A
]
A
^
T
b
AWI
AVI
AUI
ATI
U1
SH
HH
_
H
D
<
H
D
H
D
H
D
H
D
0H
D
qH
C0H
t
H
L
L
L
H
D
H
|
H
"
H
t
L
l
H
D
0
H
D
(
H
|
0H
t
H
H
s
L
P
D
<
H
|
H
H
A9n
w
H
H1
[
]
A
\
A
]
A
^
A_
SH
H
t
[
H
Q
H
C
H
H
[
1
H
W
f
f9
u
H
H
H9
r
1
ATI
1
USH
H
H
t
T
1
H
H
E
1
9
t
ZY
[
]
A
\
H
4
H
|
A
1
ATI
1
USH
H
H
t
1
H
H
9
F
H
4
H
|
A
t
^
_
[
]
A
\
9
r
H
1
H
t
H
D
H
H
1
H
t
H
D
H
UH
1
SH
H
}
H
t
H
H
E
AX
[
]
H
H
T
h
1
H
|
H
H
H
T
G
H
D
H
H
H
T
H
D
H
UH
SH
H
H
H
t
H
H
E
[
[
]
H
H
T
1
H
|
H
H
H
T
H
H
D
H
H
H
T
H
D
H
UH
SH
H
H
H
t
H
H
H
E
]
[
]
ATI
H
U
1
S
H
H
t
B
9
F
L
)
9
G
H
t
XZ
[
]
A
\
U
1
SH
H
H
H
t
9
H
F
H
t
)
H
[
]
ATI
1
USH
H
H
t
h
1
H
H
Y
1
9
t
Y
^
[
]
A
\
H
4
H
|
A
1
ATI
1
USH
H
H
t
1
H
H
9
F
H
4
H
|
A
t
_AX
[
]
A
\
9
r
H
1
H
t
H
H
D
H
H
1
H
t
H
D
H
UH
1
SH
H
H
t
H
H
H
E
AY
[
]
S
H
H
t
H
H
L
H
H
H
9
t
H9
s
AZA
[
[
H
)
H
H
U
S
H
H
T
H
t
q
9
v
H
[
]
H
t
H
|
H
F
9
t
H
H9
r
H
)
H
AVI
AUA
ATUSH
H
H
T
H
t
H
t
1
H
A
D9
s
H
[
]
A
\
A
]
A
^
E
xAD
)
A9
w9Ic
H
H
D
H
D
H
\
H
t
D
H
A
t
H
H
;
\
s
D
H
H
)
D
H
+
\
H
H
AUI
ATA
UH
SH
(
H
T
H
t
^
A9
v
H
(
[
]
A
\
A
]
H
t
1
H
D
)
7
9
w
H
H
)
D
D
H
H
\
H
t
H
A
t
H
H
;
\
v
H
+
\
H
H
U
1
SH
H
H
H
t
l
9
H
F
)
H
4
H
t
i
H
[
]
UH
X
H
SH
(
t
H
;
t
H
d
t3
H
H
1
H
H
A
1
D
I
H
(
[
]
H
UH
1
SH
H
H
t
H
1
H
1
H
H
9
t
H
[
]
H
|
H
AVI
AUATI
1
USH
H
H
t
A
H
1
L
H
H
|
H
i
A9
A
F
A
t
[
]
[
]
A
\
A
]
A
^
A9
D
r
AUH
k
I
ATL
%
C
US
H
H
T
H
t
L
D
P
H
L
1
H
H
i
9
s
H
[
]
A
\
A
]
x
<
)
9
w6Hc
H
H
D
H
D
H
\
L
H
A
u
H
H
;
\
s
H
H
)
D
H
+
\
H
H
AUH
I
ATL
%
US
H
H
t
H
T
L
D
9
v
H
[
]
A
\
A
]
H
1
L
H
)
H
i
9
w
H
H
)
D
H
H
\
L
H
A
u
H
H
;
\
v
H
+
\
H
H
AU1
H
ATI
1
USH
H
H
(
H
t
H
H
i
A
H
T
H
t
A
H
<
H
T
H
t
.
D
L
H
BH
D
f
G
f
H
D
H
T
H
H
;
T
r
H
(
[
]
A
\
A
]
ATH
E
UH
SH
0
t
H
'
t
H
P
tLH
\
H
H
1
H
H
D
H
H
1
H
>
H
0
[
]
A
\
H
ATI
U
SH
;
t
A
:
u
H
I
u
1
[
]
A
\
SH
H
H
t
H
(
;
t8
8
P
t
H
T
:
u
!
H
B
H
H
D
H
D
H
;
r
1
;
1
ZY
[
ATI
1
UH
SH
H
t
H
1
9
t
^
_
[
]
A
\
H
|
H
A
1
AUATI
1
USH
H
H
t
H
A
?
D
D9
F
H
|
H
A
t
H
[
]
A
\
A
]
A9
r
UH
-
SH
H
H
T
H
t
-
;
t
>
8
F
t2H
L
:
D
u
"
H
A
H
H
D
H
D
H
;
D
r
1
;
1
H
[
]
L
H
A
A8
u
H
H
H9
r
1
D
AUL
-
ATI
U
SH
H
)
;
t
(
A
A
D
A
:
D
u
H
I
u
1
AY
[
]
A
\
A
]
U
1
SH
H
H
H
t
T
9
H
F
)
H
4
H
t
Q
H
[
]
ATI
H
U
1
S
H
H
t
9
F
L
)
9
G
H
4
H
t
AZA
[
[
]
A
\
ATI
H
U
1
S
H
H
t
9
F
L
)
9
G
H
4
H
t
[
]
[
]
A
\
ATI
H
U
1
S
H
H
t
9
F
L
)
9
G
H
t
M
A
\
X
[
]
A
\
U
1
SH
H
H
H
t
j
9
H
F
H
t
)
H
[
]
ATI
U
SH
H
uu
u
XZ
[
]
A
\
H
t
H
H
'
H
L
T
E1
H
<
E
L9
r
L
9
t
#
H
u
E
t
D
)
E1
1
D
H
Z
H
G
I
H
H
t
H
L
1
H
t
A
L9
s
L
9
t
)
H
u
E
J
E1
1
D
1
H
3
H
F
H
H
D
ATSH
H
H
H
H
H
Z
H
H
H
H
[
A
\
SI
1
H
H
H
H
T
H
L
H
H
(
H
T
H
u
f
H
f
B
H
u
H
[
ATUH
SH
t
tm
W
1
H
[
]
A
\
H
f
H
H
D
H
t
1
H
s
H
|
H
T
H
1
H
1
E
E
D
H
UH
H
H
S
H
(
H
u
t
ta
E
W
1
H
H
(
[
]
H
H
t
1
H
D
H
|
H
T
H
1
7
1
E
U
\
H
s
AV
I
AUATUSH
H
T
H
\
L
CH
}
t
/
H
L9
r
}
t
H
L9
r
A
fD
#
H
L9
s
fD
e
H
A
U
t
H
;
\
v
f
{
H
C
H
D
f
H
+
\
H
L
H
5
Y
^
[
]
A
\
A
]
A
^
ATI
H
UH
SH
0H
H
T
H
t
(
H
H
t
1
H
H
L
H
tJH
t
(
H
;
t
s
'
L
f
f
;
t
H
u
f
f
H
H
D
(
H
+
L
H
T
H
H
H
H
0
[
]
A
\
H
H
T
G
H
L
H
=
H
D
H
T
H9
r
H
H
H
T
H
L
H
=
H
D
H
T
H9
r
H
ATI
H
UH
SH
0H
H
t
(
1
H
H
T
H
H
\
(
H
t
H
t
;
H
D
(
H9
s
L
:
t
H
u
H
H
D
(
+
t
H
T
H
P
H
H
0
[
]
A
\
AT1
USH
H
H
t
H
l
H
H
A
H
H
H
D
H
H
D
H9
r
_AX
[
]
D
A
\
AT1
USH
H
H
t
H
l
H
H
A
H
o
H
H
D
H
H
D
H9
r
AYAZ
[
]
D
A
\
S
1
H
H
t
V
H
L
H
9
t
H
H9
s
A
[
[
[
)
U
S
1
H
H
t
H
L
H
<
9
v
H
[
]
H
9
t
H
H9
r
)
AWAVI
AUI
1
ATU
S1
H
8H
t
(
L
|
A
I
E
l
D
t
L
]
A
H
9
t1
L
)
L
L
L
L
H
H
t
#
D9
t
U
D9
u
H
8
[
]
A
\
A
]
A
^
A_
I
E
t
L
+
T
;
1
AUI
ATI
U
1
SH
H
t
H
L
u
H
[
]
A
\
A
]
9
w
H
Hc
H
)
L
H
A
t
H
H
;
\
s
+
T
I
H
I
1
H
H
L
H
L
H
H
e
AWI
AVAUA
1
ATUSH
H
H
t
K
H
t
1
H
L
t
5
A
D9
s
H
[
]
A
\
A
]
A
^
A_
E
x8
D
)
A9
w
.
Ic
H
T
H
H
t
D
H
A
t
H
H
;
\
s
I
D
H
)
+
D
AVI
AUI
ATA
1
USH
H
t
E
H
\
u
]
A
\
[
]
A
\
A
]
A
^
A9
w
H
D
H
)
D
L
H
A
t
H
H9
v
+
T
I
H
I
1
H
H
L
H
L
H
H
a
AVI
AUA
1
ATI
USH
H
t
A9
H
l
v
A
]
A
^
[
]
A
\
A
]
A
^
1
L
H
A
D
)
A9
w
D
H
\
H
D
H
)
H
4
D
H
A
t
H
H9
v
+
T
ATI
U
SH
H
ub
u
XZ
[
]
A
\
H
t
H
1
b
L
L
E1
I
|
L9
D
r
L
:
t
H
u
t
)
E1
1
H
4
H
I
H
t
1
H
|
E1
H
D
D
H9
s
L
:
0t
'
H
1
u
^
E1
1
1
H
J
H
I
H
D
AT
H
H
UH
SH
H
H
0L
H
t
H
H
H
H
L9
u
[
]
A
\
AUI
ATA
UH
SH
H
0
1
t
-
H
E
D
L
H
H
v
H
E
D
H
E
H
H
AZ
[
]
A
\
A
]
H
U
H
H
SH
H
H
H
0H
H
H
H9
u
A
[
[
]
AUI
ATA
S
D
L
[
A
\
A
]
A
1
ATI
SH
H
6
L
H
A
\
[
A
\
1
AVI
AUI
ATA
SH
D
L
H
L
H
1
H
H
[
A
\
A
]
A
^
AUI
H
ATA
S
1
H
H
t
H
L
D
L
A
A
\
A
]
[
A
\
A
]
ATI
SH
H
0
AXH
L
[
A
\
H
8
t
H
u
H
H
H
H
f
8
u
H
)
H
)
u
H
H
f
f
u
1
f
?
H
G
8
<
H
1
8
<
1
f
f
w
H
f
f
u
1
|
H
?
u
1
H
7
?
x
H
H9
r
1
G
f
af
f
t
f
t
f
f
01
f
H
H
T
0
H
t
(
H
H
?
H
L
8L
D
L
L
HH
H
)
H
)
x
)
p
)
h
)
)
X
)
P
)
H
)
H
H
D
0
H
D
H
D
H
D
H
:
H
8
H
U1
H
SH
H
H
i
}
H
t
H
H
Z
[
]
UH
S
{
H
H
2
H
t
H
H
H
f
Y
[
]
H
E1
H
t
H
8
t
;
H
u
8
I
H
t8H
:
t
#
H
u
B
H
u
H
L
H
H
B
H
E1
H
H
H
f
8
u
H
)
H
J
H
H
|
1
x
H
T
H
H
UH
H
SH
H
Z
H
t
H
H
H
Z
[
]
ATU
SH
H
H
H
x
H
<
H
P0
H
~
Y
^
[
]
A
\
H
}
<
H
H
q
<
H
UH
SH
H
z
y
H
G
H9
t
Z
[
]
w
^
H
I
1
M
t
H
u
L
H
H
E
A
%
A
L
E
H
H
?
H
;
H9
t
y
H
B
H9
t
ATH
;
UH
SH
?
H9
t
.
x
-
G
%
9
s
x
uX
w
H
;
H
E
[
]
A
\
H
E
H9
u
L
e
A
D
%
9
r
H
u
]
H
}
H
H
}
*
L
e
H
H
t
H
E
%
B
9
A
E
t
H
D
)
D
D
L
A
;
t4A
)
D
D
)
u
D
D
A
I
|
D
A
H
47H
D
AUI
ATA
US
H
H
?
O
9
vg
H
H
=
w_H
:
H9
tW
9
B
y
I
E
H9
tz
A
H
I
t
&
A
%
A
M
E
Y
[
]
A
\
A
]
1
D
H
H
H
t
%
B
b
I
U
A
H
U
H
H
t
I
u
D
I
H
l
AVA
AUA
ATA
UH
SH
H
E
1
%
9
r
E
D
D
H
U
[
]
A
\
A
]
A
^
ATA
UH
SH
u
1
[
]
A
\
D
H
t
H
M
Q
y9H
Q
x
H
9
H9
tT
Q
H
E
H
E
H
H
H
U
H
x
y
H
8
H9
t
Q
H
H
C
H
E
C
H
E
H
E
H
H
?
H
8
H9
t
y
H
B
H9
t
b
UH
SH
H
-
H
t
H
-
H
H
H
u
H
[
H
H
Weave
User
PrivKey
mozilla
.
org
/
psm
;
1
FC0F
^
1
A
y
WeaveCryptoModule
Weave
crypto
module
labs
.
mozilla
.
com
/
Weave
/
Crypto
;
1
e
H
C
2
sqS
N
_
o
;
HeDa
F
l
u
=
%
x
%
o
%
d
%
i
!
"
#
%
&
'
(
)
*
+
-
.
/
0123456789
:
;
<
=
>
?
abcdefghijklmnopqrstuvwxyz
[
\
]
^
_
abcdefghijklmnopqrstuvwxyz
{
|
}
~
!
"
#
%
&
'
(
)
*
+
-
.
/
0123456789
:
;
<
=
>
?
ABCDEFGHIJKLMNOPQRSTUVWXYZ
[
\
]
^
_
ABCDEFGHIJKLMNOPQRSTUVWXYZ
{
|
}
~
;
t
p
&
V
H
t
h
f
P
(
6
8
p
D
(
H
.
8
P
X
h
w
4
H
X
x
"
l
Z
8
X
D
v
r
0
P
\
f
x
J
4
(
^
z
X
p
>
T
v
x
f
8
P
h
p
(
Z
b
H
~
x
8
P
h
B
8
V
X
:
h
8
h
R
N
l
H
p
(
j
H
h
j
j
8
X
T
8
f
X
>
"
d
(
P
\
x
V
X
p
T
6
X
0
t
H
x
:
T
x
8
P
(
h
:
d
8
P
h
0
X
p
t
!
0
!
P
!
zR
x
4
L
d
|
!
B
D
G
D
B
E
E
A
(
A
0D
4
<
B
B
E
E
E
(
D
0A
8G
!
4
d
F
0
B
E
E
E
(
A
0
D
8G
A
4
>
4
B
E
B
B
(
A
0
D
8G
A
4
:
B
E
E
H
(
A
0A
8
G
~
B
E
H
D
(
A
0
I
<
&
B
E
E
A
(
C
0D
P
4
l
B
E
E
H
(
A
0A
8G
b
4
H
B
E
B
H
(
A
0A
8G
a
B
E
E
A
(
A
0
m
B
E
D
A
(
G
<
\
B
E
A
I
(
I
l
C
A
G
G
4
.
B
H
K
B
(
D
0A
8
J
A
4
M
B
E
E
B
(
D
0A
8G
A
4
B
E
E
E
(
A
0
C
8
I
4
4
d
B
E
E
E
(
D
0A
8D
l
S
B
E
E
A
(
D
4
T
A
K
h
S
A
K
0
A
A
G
l
B
E
D
F
(
D
0
L
d
#
A
|
(
8
A
D
G
8
A
>
A
A
M
B
A
M
J
A
G
0
D
C
A
M
d
J
A
G
0
_
A
I
J
0
:
G
A
M
d
A
A
M
G
^
B
B
E
D
(
D
0D
1
A
D
G
4
B
B
E
D
(
D
0D
d
2
A
D
G
4
j
B
B
E
E
(
D
0
D
8D
P
:
A
J
G
4
Z
j
B
B
E
E
(
D
0
D
8D
P
?
A
J
G
4
_
B
B
E
D
(
D
0D
d
0
A
D
G
A
^
B
B
E
D
(
D
0D
0
A
D
G
.
A
4
_
A
D
D
t
6
<
C
H
T
C
H
l
%
5
D
4
\
2
4
t
N
L
q
B
D
L
U
A
J
S
Y
B
D
A
z
B
E
D
F
(
D
0
D
P
U
B
F
K
D
0
l
~
P
B
J
A
D
(
D
0
&
A
]
A
D
G
.
A
4
D
B
E
E
E
(
D
0A
8D
|
6
[
A
D
G
4
I
B
B
B
E
(
D
0A
8
G
p
R
B
E
E
D
(
D
0
I
4
B
E
E
E
(
D
0
C
8D
T
8
A
l
&
O
B
F
A
G
0
X
B
F
A
G
0
D
D
*
A
F
G
F
B
M
D
D
c
B
G
I
D
(
D
0
l
2
9
A
M
D
L
B
E
D
D
D
D
A
D
L
D
D
D
D
\
/
A
D
L
|
'
B
D
G
N
B
G
E
F
0
A
E
J
0
O
B
F
A
G
0
Y
B
F
A
G
0
4
P
D
L
X
D
d
Z
-
A
F
G
h
H
A
F
[
A
C
F
0
B
E
E
A
(
A
0
G
P
J
B
E
D
D
(
D
P
D
A
E
J
0
<
i
A
K
D
\
(
M
A
F
G
0
|
V
i
B
F
B
F
(
A
0
G
B
L
H
A
(
F
B
L
H
A
(
F
B
I
F
A
(
J
P
<
M
B
E
E
D
(
D
d
?
B
H
D
H
0
B
H
D
D
P
=
B
D
C
Z
A
G
T
I
B
F
D
D
0
v
\
B
B
F
A
(
G
D
v
"
B
D
G
d
m
A
H
G
0
8
Z
B
I
D
C
(
G
0
*
D
A
E
J
0
N
T
B
G
E
F
0
z
R
B
G
E
F
0
4
O
B
G
E
F
0
\
A
E
J
0
|
B
D
C
G
0
B
A
G
0
Q
A
J
0
B
A
D
D
j
A
J
F
B
H
B
A
(
A
0D
\
f
B
G
D
D
P
A
D
A
D
4
B
G
D
D
P
a
B
C
A
G
0
b
B
C
A
G
0
A
A
I
L
8
V
A
D
H
0
4
l
n
B
B
E
G
(
A
0
H
8
F
p
o
B
E
D
E
(
D
F
+
4
Z
B
E
B
G
(
A
0A
8
G
P
t
B
E
E
F
(
A
0D
L
+
d
B
E
G
D
(
A
0D
B
D
C
G
0
"
(
2
0
4
.
L
d
&
|
*
8
.
G
7
A
H
G
2
A
D
I
4
h
L
2
d
8
!
D
|
B
)
A
G
G
L
G
B
A
C
D
0
l
T
k
A
D
D
'
B
H
D
L
H
_
d
B
J
D
A
(
F
0
l
W
B
E
E
D
(
D
0
B
D
D
(
'
P
tS
T
R
T
LU
[
\
a
_
\
nY
[
\
\
X
(
X
X
X
2X
dX
\
\
D
^
0
\
X
X
X
[
\
\
X
^
X
V
\
>
^
*
\
X
X
X
r
~
2
X
o
0
8
+
X
o
o
o
o
4
2
2
3
3
.
3
>
3
N3
^
3
n3
~
3
3
3
3
3
3
3
3
3
4
4
.
4
>
4
N4
^
4
n4
~
4
4
4
4
4
4
4
4
4
5
5
.
5
>
5
N5
^
5
n5
~
5
5
5
5
5
5
5
5
5
6
6
.
6
>
6
N6
^
6
n6
~
6
6
6
6
6
6
6
6
6
7
7
.
7
>
7
N7
^
7
n7
~
7
7
7
7
7
7
7
7
7
P
v
F
OF
O
GCC
:
(
Debian
4
.
3
.
2
-
1
)
4
.
3
.
2
GCC
:
(
Debian
4
.
3
.
2
-
1
.
1
)
4
.
3
.
2
GCC
:
(
Debian
4
.
3
.
2
-
1
.
1
)
4
.
3
.
2
GCC
:
(
Debian
4
.
3
.
2
-
1
.
1
)
4
.
3
.
2
GCC
:
(
GNU
)
4
.
2
.
3
GCC
:
(
GNU
)
4
.
2
.
3
GCC
:
(
GNU
)
4
.
2
.
3
GCC
:
(
GNU
)
4
.
2
.
3
GCC
:
(
GNU
)
4
.
2
.
3
GCC
:
(
GNU
)
4
.
2
.
3
GCC
:
(
GNU
)
4
.
2
.
3
GCC
:
(
GNU
)
4
.
2
.
3
GCC
:
(
Debian
4
.
3
.
2
-
1
.
1
)
4
.
3
.
2
GCC
:
(
Debian
4
.
3
.
2
-
1
)
4
.
3
.
2
L
8
2
<
2
!
/
home
/
aurel32
/
debian
/
co
-
packages
/
glibc
/
glibc
-
2
.
7
/
build
-
tree
/
amd64
-
libc
/
csu
/
crti
.
S
/
home
/
aurel32
/
debian
/
co
-
packages
/
glibc
/
glibc
-
2
.
7
/
build
-
tree
/
glibc
-
2
.
7
/
csu
GNU
AS
2
.
18
.
0
P
/
home
/
aurel32
/
debian
/
co
-
packages
/
glibc
/
glibc
-
2
.
7
/
build
-
tree
/
amd64
-
libc
/
csu
/
crtn
.
S
/
home
/
aurel32
/
debian
/
co
-
packages
/
glibc
/
glibc
-
2
.
7
/
build
-
tree
/
glibc
-
2
.
7
/
csu
GNU
AS
2
.
18
.
0
U
%
U
%
h
/
home
/
aurel32
/
debian
/
co
-
packages
/
glibc
/
glibc
-
2
.
7
/
build
-
tree
/
amd64
-
libc
/
csu
crti
.
S
8
Ku
=
/
0K
2
K
h
/
home
/
aurel32
/
debian
/
co
-
packages
/
glibc
/
glibc
-
2
.
7
/
build
-
tree
/
amd64
-
libc
/
csu
crtn
.
S
2
K
!
K
8
'
8
2
2
2
2
!
&
.
symtab
.
strtab
.
shstrtab
.
gnu
.
hash
.
dynsym
.
dynstr
.
gnu
.
version
.
gnu
.
version_r
.
rela
.
dyn
.
rela
.
plt
.
init
.
text
.
fini
.
rodata
.
eh_frame_hdr
.
eh_frame
.
ctors
.
dtors
.
jcr
.
data
.
rel
.
ro
.
dynamic
.
got
.
got
.
plt
.
data
.
bss
.
comment
.
debug_aranges
.
debug_info
.
debug_abbrev
.
debug_line
.
debug_ranges
X
X
d
o
%
-
0
0
5
o
B
o
Q
X
X
[
+
+
e
2
2
2
2
0
k
8
8
K
q
w
0
0
0
0
t
0
0
x
0
8
8
p
P
P
P
F
0
J
%
X
!
/
X
0
X
+
2
2
8
0
0
0
8
P
8
'
5
C
P
08
f
P
u
X
8
0
&
0
0
7
O
l
k
{
0
P
>
N
\
k
=
f
m
Z
R
A
{
/
PP
F
Fd
|
X
\
T
j
c
N
=
Y
}
h
l
[
0x
nr
>
l
\
h
(
a
8
G
*
\
v
Dp
Q
0e
e
H
;
zW
C
U
LZ
Y
u
b
c
~
v
m
D
n
U
dP
l
y
c
c
H
~
!
:
Y
4
[
8V
^
{
V
^
X
e
[
(
X
E
f
j
L
|
8
0u
V
<
[
l
z
'
2n
R
X
V
(
P
#
U
Rs
A
r
Fc
D
^
[
6
|
{
rc
0
V
\
^
~
G
{
b
>
^
j
~
h
i
!
_
j
d
O
X
i
DW
6
6
}
2
I
^
6
{
|
xP
8
LU
?
[
U
X
g
i
u
[
f
{
"
q
Z
U
0
<
\
a
z
t
A
&
{
?
W
C
<
(
N
o
g
:
b
X
|
j
~
)
Y
4
|
V
0
H
\
f
t
b
'
<
f
~
b
n
O
RQ
J
|
0
\
&
a
O
V
_
:
u
y
R
G
w
t
H
Q
C
C
*
t
a
d
dX
T
2
{
y
F
_
d
Y
X
s
A
*
~
.
c
[
P
F
X
%
\
\
]
_
je
-
X
M
j
|
b
k
Z
U
_
z
M
X
5
b
*
9
Y
q
n
m
8
Bj
P
A
~
k
'
Z
z
]
{
(
p
Pe
\
W
\
.
Nv
o
m
T
O
0h
M
v
p
Q
J
Z
x
+
*
R
_
h
^
O
!
c
k
I
'
tS
1
a
&
D
l
m
o
{
s
X
nY
p
0
D
\
T
0
g
D
^
I
N
x
i
8T
j
H
S
8
P
Jz
9
B
S
^
f
c
/
v
+
|
X
!
X
#
!
"
q
!
h
S
!
X
}
7
c
!
P
!
!
j
!
2X
!
H
!
Y
U
:
"
Q
B
"
9
"
"
F
#
O
7
#
!
J
#
O
h
#
~
#
"
H
C
#
#
#
b
3
D
l
7
N
S
8
%
%
&
%
5
%
M
%
*
9
%
%
V
;
0
%
DM
&
H
&
9
A
&
e
&
8
&
&
"
&
&
&
9
'
N
S
3
'
?
e
'
'
'
'
'
!
'
'
(
G
&
(
G
\
[
(
I
M
(
(
(
(
(
6
)
!
p
3
)
M
)
_
)
v
)
)
)
)
)
A
<
*
Q
*
.
O
0
l
*
tN
T
*
~
*
=
4
*
fH
<
+
A
m
+
P
y
+
/
+
I
+
BL
+
:
1
W
W
s
"
O
:
B
-
%
-
*
C
-
X
-
l
-
?
-
T
-
-
-
h
-
-
O
.
.
.
8
3
.
J
.
Z
.
x
.
.
.
P
.
.
.
/
+
/
XG
m
\
/
y
/
2
/
9
/
J
/
initfini
.
c
call_gmon_start
crtstuff
.
c
__CTOR_LIST__
__DTOR_LIST__
__JCR_LIST__
__do_global_dtors_aux
completed
.
6068
dtor_idx
.
6070
frame_dummy
__CTOR_END__
__FRAME_END__
__JCR_END__
__do_global_ctors_aux
WeaveCrypto
.
cpp
_ZZN11WeaveCrypto14QueryInterfaceERK4nsIDPPvE5table
WeaveCryptoModule
.
cpp
_ZL11kModuleInfo
_ZL22WeaveCryptoConstructorP11nsISupportsRK4nsIDPPv
_ZL10components
nsCOMPtr
.
cpp
nsComponentManagerUtils
.
cpp
nsISupportsImpl
.
cpp
nsGenericFactory
.
cpp
_ZZN15nsGenericModule14QueryInterfaceERK4nsIDPPvE5table
_ZZN16nsGenericFactory14QueryInterfaceERK4nsIDPPvE5table
nsStringAPI
.
cpp
_Z12ns_strnmatchPKtPKcj
_Z13ns_strnimatchPKtPKcj
nsCRTGlue
.
cpp
nsMemory
.
cpp
nsTArray
.
cpp
_ZTV28nsGetClassObjectByContractID
_ZNK27nsCreateInstanceFromFactoryclERK4nsIDPPv
_ZN13nsTArray_base14EnsureCapacityEjj
_Z10NS_IsUpperc
_ZN13nsCOMPtr_baseD2Ev
_ZN30nsDependentCSubstring_externalC2ERK10nsACStringj
_ZN16nsGenericFactory25GetImplementationLanguageEPj
_ZThn8_N16nsGenericFactory6AddRefEv
_Z18CallCreateInstanceRK4nsIDP11nsISupportsS1_PPv
_ZN30nsDependentCSubstring_externalC1ERK10nsACStringjj
_ZTV21nsGetClassObjectByCID
_Z9NS_strtokPKcPPc
_ZThn8_N16nsGenericFactory14QueryInterfaceERK4nsIDPPv
_ZNK10nsACString4FindERKS_jPFiPKcS3_jE
_ZN9nsAString10StripCharsEPKc
_ZNK9nsAString7CompareEPKtPFiS1_S1_jE
_ZNK9nsAString5RFindEPKcii
_ZN15nsGenericModule7ReleaseEv
_ZThn8_N16nsGenericFactory10GetClassIDEPP4nsID
_ZN9nsIModule11COMTypeInfoIiE4kIIDE
_ZN9nsAString13AssignLiteralEPKc
_ZNK9nsAString10EndReadingEv
_ZN15nsGenericModule14UnregisterSelfEP19nsIComponentManagerP7nsIFilePKc
_ZNK9nsAString9RFindCharEt
_ZN16nsGenericFactoryD2Ev
_ZN15nsGenericModule8ShutdownEv
_ZN10nsACString9SetLengthEj
_ZN9nsAString10EndWritingEv
_ZN13nsTArray_baseC1Ev
_ZNK10nsACString5RFindERKS_iPFiPKcS3_jE
_ZN29nsDependentSubstring_externalC2ERK9nsAStringj
_ZN30nsDependentCSubstring_externalC1ERK10nsACStringj
_ZN13nsCOMPtr_baseD1Ev
_ZN8nsTArrayI18nsCString_externalE14AppendElementsI30nsDependentCSubstring_externalEEPS0_PKT_j
_ZN10nsACString10EndWritingEv
_ZN8nsMemory22GetGlobalMemoryServiceEv
_ZN15nsGenericModuleC1EPKcjPK21nsModuleComponentInfoPFjP9nsIModuleEPFvS6_E
_Z14CallGetServiceRK4nsIDS1_PPv
_ZNK24nsGetServiceByContractIDclERK4nsIDPPv
_ZThn8_N16nsGenericFactory20GetHelperForLanguageEjPP11nsISupports
_ZNK9nsAString8FindCharEtj
_ZTV21nsCreateInstanceByCID
_ZN16nsGenericFactory11LockFactoryEi
_ZNK9nsAString4FindERKS_jPFiPKtS3_jE
_ZN12nsIClassInfo11COMTypeInfoIiE4kIIDE
_Z10NS_IsAsciiPKcj
_ZTV27nsCreateInstanceFromFactory
_GLOBAL_OFFSET_TABLE_
_ZNK10nsACString8FindCharEcj
_ZTV16nsGenericFactory
_ZN13nsTArray_base17SwapArrayElementsERS_j
_ZN15nsGenericModule14QueryInterfaceERK4nsIDPPv
_ZN30NS_ConvertUTF16toUTF8_externalC1ERK9nsAString
_ZN29nsDependentSubstring_externalC2ERK9nsAStringjj
_ZN16nsGenericFactory17GetClassIDNoAllocEP4nsID
_ZNK17nsGetServiceByCIDclERK4nsIDPPv
_ZNK25nsQueryInterfaceWithErrorclERK4nsIDPPv
_Z11ToLowerCaseR10nsACString
_ZN10nsACString12BeginWritingEPPcS1_j
_ZN16nsGenericFactory19GetClassDescriptionEPPc
_ZN17nsIGenericFactory11COMTypeInfoIiE4kIIDE
_Z10NS_IsAsciiPKc
_Z9NS_strlenPKt
_ZN9nsAString9SetLengthEj
_ZThn8_N16nsGenericFactory13GetContractIDEPPc
_ZN8nsMemory12HeapMinimizeEi
_ZNK10nsACString10EndReadingEv
_ZThn8_N16nsGenericFactory19GetClassDescriptionEPPc
_ZN10nsACString17DefaultComparatorEPKcS1_j
_ZNK10nsACString7CompareEPKcPFiS1_S1_jE
_ZN15nsGenericModule14GetClassObjectEP19nsIComponentManagerRK4nsIDS4_PPv
_ZNK9nsAString6EqualsERKS_PFiPKtS3_jE
_ZThn8_N16nsGenericFactory17GetClassIDNoAllocEP4nsID
_ZNK9nsAString4FindEPKcji
_ZN13nsTArray_base14ShrinkCapacityEj
_ZN16nsGenericFactoryC1EPK21nsModuleComponentInfo
_Z10NS_strndupPKtj
_ZN16nsGenericFactoryC2EPK21nsModuleComponentInfo
_Z10NS_IsAsciit
_ZN11nsISupports11COMTypeInfoIiE4kIIDE
_ZN13nsCOMPtr_base18assign_with_AddRefEP11nsISupports
_ZNK21nsCreateInstanceByCIDclERK4nsIDPPv
_Z20NS_NewGenericFactoryPP17nsIGenericFactoryPK21nsModuleComponentInfo
_ZN10nsACString9AppendIntEii
_ZN16nsGenericFactory14QueryInterfaceERK4nsIDPPv
_ZN17nsString_externalC1ERK9nsAString
_Z18CompressWhitespaceR9nsAString
_ZN15nsGenericModuleD1Ev
_ZNK33nsGetServiceByContractIDWithErrorclERK4nsIDPPv
_ZThn8_N16nsGenericFactory7ReleaseEv
_ZN8nsTArrayI18nsCString_externalE16RemoveElementsAtEjj
_ZN13nsTArray_base9sEmptyHdrE
_ZNK10nsACString9RFindCharEc
_ZN9nsAString7ReplaceEjjRKS_
_ZN16nsGenericFactoryD1Ev
_ZN21nsIComponentRegistrar11COMTypeInfoIiE4kIIDE
_ZTV11nsISupports
_ZN9nsAString4TrimEPKcii
_ZNK10nsACString7CompareERKS_PFiPKcS3_jE
_Z10NS_IsAsciiPKt
_ZN8nsMemory5CloneEPKvm
_ZN15nsGenericModuleC2EPKcjPK21nsModuleComponentInfoPFjP9nsIModuleEPFvS6_E
_Z15NS_IsAsciiDigitt
_ZNK26nsGetServiceByCIDWithErrorclERK4nsIDPPv
_ZN15nsGenericModule6AddRefEv
_Z11ToLowerCaseRK10nsACStringRS_
_ZN13nsTArray_baseD1Ev
__dso_handle
_ZNK9nsAString5RFindERKS_iPFiPKtS3_jE
_ZN13nsTArray_baseC2Ev
_ZNK10nsACString12BeginReadingEv
_ZN30nsDependentCSubstring_externalC2ERK10nsACStringjj
_ZN13nsCOMPtr_base25assign_from_gs_contractidE24nsGetServiceByContractIDRK4nsID
_Z20NS_IsAsciiWhitespacet
__DTOR_END__
_ZN16nsGenericFactory10GetClassIDEPP4nsID
_ZNK10nsACString6EqualsERKS_PFiPKcS3_jE
_Z16NS_TableDrivenQIPvPK12QITableEntryRK4nsIDPS_
_Z11ParseStringRK10nsACStringcR8nsTArrayI18nsCString_externalE
_ZN13nsCOMPtr_base14assign_from_qiE16nsQueryInterfaceRK4nsID
_ZNK10nsACString4FindEPKcjPFiS1_S1_jE
_ZTV9nsIModule
_ZN13nsCOMPtr_base29assign_from_gs_cid_with_errorERK26nsGetServiceByCIDWithErrorRK4nsID
_Z11ToUpperCaseRK10nsACStringRS_
_ZN16nsGenericFactory20GetHelperForLanguageEjPP11nsISupports
_ZNK21nsGetClassObjectByCIDclERK4nsIDPPv
_Z10NS_strspnpPKcS0_
_ZN10nsIFactory11COMTypeInfoIiE4kIIDE
_ZN8nsTArrayI18nsCString_externalE11AssignRangeI30nsDependentCSubstring_externalEEvjjPKT_
_ZNK9nsAString7CompareERKS_PFiPKtS3_jE
_ZThn8_N16nsGenericFactory25GetImplementationLanguageEPj
_Z11ToUpperCaseR10nsACString
_Z9NS_strdupPKt
_ZN10nsACString12BeginWritingEj
_ZN15nsGenericModule14AddFactoryNodeEP17nsIGenericFactory
_ZN16nsGenericFactory14CreateInstanceEP11nsISupportsRK4nsIDPPv
_ZN16nsGenericFactory13GetContractIDEPPc
_ZN13nsTArray_base9ShiftDataEjjjj
_ZTV28nsCreateInstanceByContractID
_ZNK9nsAString12BeginReadingEPPKtS2_
_ZThn8_N16nsGenericFactory13GetInterfacesEPjPPP4nsID
_Z15NS_IsAsciiAlphat
_ZNK9nsAString13EqualsLiteralEPKc
_Z14CallGetServicePKcRK4nsIDPPv
_ZN31NS_ConvertASCIItoUTF16_externalC1EPKcj
_ZN16nsGenericFactory16SetComponentInfoEPK21nsModuleComponentInfo
_ZNK10nsACString12BeginReadingEPPKcS2_
_Z20NS_NewGenericModule2PK12nsModuleInfoPP9nsIModule
_Z22CaseInsensitiveComparePKcS0_j
_ZN9nsAString13AppendLiteralEPKc
_ZN13nsCOMPtr_base18assign_from_helperERK15nsCOMPtr_helperRK4nsID
_ZN13nsTArray_base29EnsureNotUsingAutoArrayBufferEj
_ZN16nsGenericFactory6CreateEP11nsISupportsRK4nsIDPPv
_Z9NS_strcmpPKtS0_
_ZNK9nsAString12BeginReadingEv
_ZN16nsGenericFactory6AddRefEv
_ZN13nsTArray_base13InsertSlotsAtEjjj
_ZN16nsGenericFactory7ReleaseEv
_ZNK10nsACString5RFindEPKciPFiS1_S1_jE
_ZN29nsDependentSubstring_externalC1ERK9nsAStringjj
_ZNK10nsACString6EqualsEPKcPFiS1_S1_jE
_ZNK10nsACString9ToIntegerEPjj
_ZN13nsCOMPtr_base18assign_from_gs_cidE17nsGetServiceByCIDRK4nsID
_ZN15nsGenericModuleD2Ev
_ZNK10nsACString4FindEPKcPFiS1_S1_jE
_ZN13nsCOMPtr_base25assign_from_qi_with_errorERK25nsQueryInterfaceWithErrorRK4nsID
_ZN18nsCString_externalC1ERK10nsACString
_ZN9nsAString12BeginWritingEj
_ZNK9nsAString6EqualsEPKtPFiS1_S1_jE
_ZN13nsTArray_baseD2Ev
_ZNK28nsGetClassObjectByContractIDclERK4nsIDPPv
_ZN9nsAString17DefaultComparatorEPKtS1_j
_ZNK9nsAString22LowerCaseEqualsLiteralEPKc
_Z10NS_IsLowerc
_ZN10nsACString10StripCharsEPKc
_ZThn8_N16nsGenericFactory8GetFlagsEPj
_ZN15nsGenericModule9CanUnloadEP19nsIComponentManagerPi
_Z15ToNewUTF8StringRK9nsAString
_ZN17nsLowerUpperUtils12kUpper2LowerE
_ZN15nsGenericModule12RegisterSelfEP19nsIComponentManagerP7nsIFilePKcS5_
_ZNK28nsCreateInstanceByContractIDclERK4nsIDPPv
_ZN17nsLowerUpperUtils12kLower2UpperE
_ZN29nsDependentSubstring_externalC1ERK9nsAStringj
_ZN15nsGenericModule10InitializeEP19nsIComponentManager
_ZN10nsACString4TrimEPKcii
_Z18CallCreateInstancePKcP11nsISupportsRK4nsIDPPv
_ZTV15nsGenericModule
_Z18CallGetClassObjectRK4nsIDS1_PPv
_ZTV10nsIFactory
_ZN13nsCOMPtr_base16begin_assignmentEv
_ZN8nsTArrayI18nsCString_externalE13DestructRangeEjj
_Z18CallGetClassObjectPKcRK4nsIDPPv
_ZN9nsAString12BeginWritingEPPtS1_j
_ZNK10nsACString5RFindEPKcPFiS1_S1_jE
printf_stderr
_ZN16nsGenericFactory16GetComponentInfoEPPK21nsModuleComponentInfo
_ZN16nsGenericFactory8GetFlagsEPj
_ZNK9nsAString9ToIntegerEPjj
_ZTV12nsIClassInfo
_Z9NS_strdupPKc
_ZNK16nsQueryInterfaceclERK4nsIDPPv
_DYNAMIC
_ZN9nsAString9AppendIntEii
_ZN16nsGenericFactory13GetInterfacesEPjPPP4nsID
_ZTV17nsIGenericFactory
_Z19NS_NewGenericModulePKcjP21nsModuleComponentInfoPFvP9nsIModuleEPS4_
_ZN13nsCOMPtr_base36assign_from_gs_contractid_with_errorERK33nsGetServiceByContractIDWithErrorRK4nsID
_ZN11WeaveCrypto14SetKeypairBitsEj
NS_StringSetDataRange
_ZN11WeaveCrypto17GenerateRandomKeyER10nsACString
_ZN11WeaveCrypto14QueryInterfaceERK4nsIDPPv
_ZTV12IWeaveCrypto
PK11_ExtractKeyValue
NSS_3
.
3
snprintf
GLIBC_2
.
2
.
5
_ZN11WeaveCrypto15EncodePublicKeyEP18SECKEYPublicKeyStrR10nsACString
NS_StringContainerInit2
PR_AtomicIncrement
NS_CStringSetData
PK11_CreateContextBySymKey
NSS_3
.
2
__gmon_start__
_ZN11WeaveCrypto16WrapSymmetricKeyERK10nsACStringS2_RS0_
_Jv_RegisterClasses
_ZdlPv
GLIBCXX_3
.
4
PR_Malloc
_fini
NS_StringContainerFinish
NS_StringGetMutableData
NS_StringCopy
_ZN11WeaveCryptoC2Ev
_ZN11WeaveCryptoD1Ev
PL_Base64Encode
NS_Alloc
NS_CStringCopy
NS_CStringContainerInit
_ZN11WeaveCrypto12DecodeBase64ERK10nsACStringPcPj
PK11_GetBlockSize
NSS_3
.
2
_ZN11WeaveCrypto16VerifyPassphraseERK10nsACStringS2_S2_S2_Pi
_ZN11WeaveCrypto7EncryptERK10nsACStringS2_S2_RS0_
vfprintf
GLIBC_2
.
2
.
5
_ZN11WeaveCrypto12GetAlgorithmEPj
PK11_SetPrivateKeyNickname
NSS_3
.
4
_ZN11WeaveCrypto6AddRefEv
PK11_KeyGen
NSS_3
.
2
__cxa_finalize
GLIBC_2
.
2
.
5
NS_GetMemoryManager
PK11_GetKeyData
NSS_3
.
3
_ZN11WeaveCrypto14GetKeypairBitsEPj
_ZN11WeaveCrypto12EncodeBase64ERK10nsACStringRS0_
_ZN11WeaveCrypto7DecryptERK10nsACStringS2_S2_RS0_
PK11_GenerateKeyPairWithFlags
NSS_3
.
10
.
2
NS_CStringToUTF16
NS_StringContainerInit
NS_GetComponentManager
_ZTV11WeaveCrypto
PR_sscanf
PK11_WrapPrivKey
NSS_3
.
3
SECKEY_DestroyPublicKey
NSS_3
.
2
_ZN11WeaveCrypto19GenerateRandomBytesEjR10nsACString
_ZN11WeaveCrypto16RewrapPrivateKeyERK10nsACStringS2_S2_S2_S2_RS0_
NS_CStringContainerFinish
NS_StringGetData
PK11_ParamFromIV
NSS_3
.
2
PR_Free
PK11_GetInternalKeySlot
NSS_3
.
2
_ZN12IWeaveCrypto11COMTypeInfoIiE4kIIDE
PK11_GetIVLength
NSS_3
.
3
NS_CStringGetData
NS_CStringSetDataRange
__cxa_pure_virtual
CXXABI_1
.
3
SECKEY_DecodeDERSubjectPublicKeyInfo
NSS_3
.
4
NS_CStringCloneData
SECKEY_ExtractPublicKey
NSS_3
.
3
_ZN11WeaveCrypto18UnwrapSymmetricKeyERK10nsACStringS2_S2_S2_S2_RS0_
memmove
GLIBC_2
.
2
.
5
_ZN11WeaveCrypto7ReleaseEv
_ZN11WeaveCryptoC1Ev
_ZN11WeaveCrypto12DecodeBase64ERK10nsACStringRS0_
_ZN11WeaveCrypto11CommonCryptEPKcjPcPjRK10nsACStringS6_m
_ZN11WeaveCrypto14WrapPrivateKeyEP19SECKEYPrivateKeyStrRK10nsACStringS4_S4_RS2_
_ZN11WeaveCrypto12EncodeBase64EPKcjR10nsACString
__bss_start
PK11_FreeSymKey
NSS_3
.
2
PK11_CipherOp
NSS_3
.
2
_ZN11WeaveCrypto15GenerateKeypairERK10nsACStringS2_S2_RS0_S3_
SECKEY_EncodeDERSubjectPublicKeyInfo
NSS_3
.
3
PK11_UnwrapPrivKey
NSS_3
.
3
PK11_CreatePBEV2AlgorithmID
NSS_3
.
12
PK11_PubWrapSymKey
NSS_3
.
2
strcpy
GLIBC_2
.
2
.
5
NS_CStringGetMutableData
PR_AtomicDecrement
_ZNK10nsACString6LengthEv
_ZN11WeaveCrypto23DeriveKeyFromPassphraseERK10nsACStringS2_PP13PK11SymKeyStr
NS_Realloc
PK11_GetInternalSlot
NSS_3
.
2
NS_GetServiceManager
memcmp
GLIBC_2
.
2
.
5
SECKEY_DestroyPrivateKey
NSS_3
.
2
PK11_DigestFinal
NSS_3
.
2
NS_UTF16ToCString
NS_CStringContainerInit2
_end
PK11_PubUnwrapSymKey
NSS_3
.
2
NSGetModule
NS_Free
stderr
GLIBC_2
.
2
.
5
_ZN11WeaveCryptoD2Ev
PK11_FreeSlot
NSS_3
.
2
PL_Base64Decode
PK11_GetPadMechanism
NSS_3
.
4
PK11_ImportSymKey
NSS_3
.
3
SECKEY_DestroySubjectPublicKeyInfo
NSS_3
.
2
_edata
SECITEM_FreeItem
NSS_3
.
2
_Znwm
GLIBCXX_3
.
4
PK11_PBEKeyGen
NSS_3
.
2
PK11_AlgtagToMechanism
NSS_3
.
2
_ZN11WeaveCrypto16GenerateRandomIVER10nsACString
PK11_DestroyContext
NSS_3
.
2
_init
_ZN11WeaveCrypto12SetAlgorithmEj
PK11_GenerateRandom
NSS_3
.
2
SECOID_DestroyAlgorithmID
NSS_3
.
2
